---
triple:          'arm64-apple-darwin'
binary-path:     processServer
relocations:
  - { offset: 0x4F, size: 0x8, addend: 0x0, symName: __ZN5boost4asio5errorL15system_categoryE, symObjAddr: 0xF5D30, symBinAddr: 0x1000281D0, symSize: 0x0 }
  - { offset: 0x69, size: 0x8, addend: 0x0, symName: __ZN5boost4asio5errorL14netdb_categoryE, symObjAddr: 0xF5D38, symBinAddr: 0x1000281D8, symSize: 0x0 }
  - { offset: 0x83, size: 0x8, addend: 0x0, symName: __ZN5boost4asio5errorL17addrinfo_categoryE, symObjAddr: 0xF5D40, symBinAddr: 0x1000281E0, symSize: 0x0 }
  - { offset: 0x9D, size: 0x8, addend: 0x0, symName: __ZN5boost4asio5errorL13misc_categoryE, symObjAddr: 0xF5D48, symBinAddr: 0x1000281E8, symSize: 0x0 }
  - { offset: 0xAA, size: 0x8, addend: 0x0, symName: __ZN5boost4asio5error18get_netdb_categoryEv, symObjAddr: 0x14, symBinAddr: 0x100000DE4, symSize: 0xC }
  - { offset: 0xD3, size: 0x8, addend: 0x0, symName: __ZZN5boost4asio5error18get_netdb_categoryEvE8instance, symObjAddr: 0x1E438, symBinAddr: 0x1000280C8, symSize: 0x0 }
  - { offset: 0x1E5, size: 0x8, addend: 0x0, symName: __ZN5boost4asio5error21get_addrinfo_categoryEv, symObjAddr: 0x20, symBinAddr: 0x100000DF0, symSize: 0xC }
  - { offset: 0x20E, size: 0x8, addend: 0x0, symName: __ZZN5boost4asio5error21get_addrinfo_categoryEvE8instance, symObjAddr: 0x1E470, symBinAddr: 0x100028100, symSize: 0x0 }
  - { offset: 0x218, size: 0x8, addend: 0x0, symName: __ZN5boost4asio5error17get_misc_categoryEv, symObjAddr: 0x2C, symBinAddr: 0x100000DFC, symSize: 0xC }
  - { offset: 0x241, size: 0x8, addend: 0x0, symName: __ZZN5boost4asio5error17get_misc_categoryEvE8instance, symObjAddr: 0x1E4A8, symBinAddr: 0x100028138, symSize: 0x0 }
  - { offset: 0x349, size: 0x8, addend: 0x0, symName: __ZN5boost4asio5error19get_system_categoryEv, symObjAddr: 0x0, symBinAddr: 0x100000DD0, symSize: 0x14 }
  - { offset: 0x367, size: 0x8, addend: 0x0, symName: __ZN5boost4asio5error15make_error_codeENS1_12basic_errorsE, symObjAddr: 0xE204, symBinAddr: 0x10000EFD4, symSize: 0x3C }
  - { offset: 0x395, size: 0x8, addend: 0x0, symName: __ZN5boost4asio5error5clearERNS_6system10error_codeE, symObjAddr: 0xE240, symBinAddr: 0x10000F010, symSize: 0x38 }
  - { offset: 0x3BD, size: 0x8, addend: 0x0, symName: __ZN5boost4asio5error15make_error_codeENS1_11misc_errorsE, symObjAddr: 0x18850, symBinAddr: 0x100019620, symSize: 0x3C }
  - { offset: 0x20D0, size: 0x8, addend: 0x0, symName: __ZN5boost4asio6detail10call_stackINS1_14thread_contextENS1_16thread_info_baseEE4top_E, symObjAddr: 0x1E376, symBinAddr: 0x100028006, symSize: 0x0 }
  - { offset: 0x226A, size: 0x8, addend: 0x0, symName: __ZN5boost4asio6detail30execution_context_service_baseINS0_14config_serviceEE2idE, symObjAddr: 0x1E380, symBinAddr: 0x100028010, symSize: 0x0 }
  - { offset: 0x2304, size: 0x8, addend: 0x0, symName: __ZN5boost4asio6detail30execution_context_service_baseINS1_9schedulerEE2idE, symObjAddr: 0x1E390, symBinAddr: 0x100028020, symSize: 0x0 }
  - { offset: 0x2317, size: 0x8, addend: 0x0, symName: __ZN5boost4asio6detail30execution_context_service_baseINS1_14kqueue_reactorEE2idE, symObjAddr: 0x1E3A0, symBinAddr: 0x100028030, symSize: 0x0 }
  - { offset: 0x2CB2, size: 0x8, addend: 0x0, symName: __ZN5boost4asio6detail10call_stackINS1_14strand_service11strand_implEhE4top_E, symObjAddr: 0x1E3B0, symBinAddr: 0x100028040, symSize: 0x0 }
  - { offset: 0x3103, size: 0x8, addend: 0x0, symName: __ZN5boost4asio6detail12service_baseINS1_14strand_serviceEE2idE, symObjAddr: 0x1E3C0, symBinAddr: 0x100028050, symSize: 0x0 }
  - { offset: 0x3116, size: 0x8, addend: 0x0, symName: __ZN5boost4asio6detail10call_stackINS1_23strand_executor_service11strand_implEhE4top_E, symObjAddr: 0x1E3D0, symBinAddr: 0x100028060, symSize: 0x0 }
  - { offset: 0x3536, size: 0x8, addend: 0x0, symName: __ZN5boost4asio6detail17posix_global_implINS0_14system_contextEE9instance_E, symObjAddr: 0x1E3E0, symBinAddr: 0x100028070, symSize: 0x0 }
  - { offset: 0x3628, size: 0x8, addend: 0x0, symName: __ZN5boost4asio6detail30execution_context_service_baseINS1_23reactive_socket_serviceINS0_2ip3udpEEEE2idE, symObjAddr: 0x1E3F0, symBinAddr: 0x100028080, symSize: 0x0 }
  - { offset: 0x3DD1, size: 0x8, addend: 0x0, symName: __ZN5boost4asio6detail10socket_ops9inet_ptonEiPKcPvPmRNS_6system10error_codeE, symObjAddr: 0xDD60, symBinAddr: 0x10000EB30, symSize: 0x310 }
  - { offset: 0x3EE7, size: 0x8, addend: 0x0, symName: __ZN5boost4asio6detail10socket_ops16clear_last_errorEv, symObjAddr: 0xE0F8, symBinAddr: 0x10000EEC8, symSize: 0x18 }
  - { offset: 0x3F00, size: 0x8, addend: 0x0, symName: __ZN5boost4asio6detail10socket_ops14get_last_errorERNS_6system10error_codeEb, symObjAddr: 0xE18C, symBinAddr: 0x10000EF5C, symSize: 0x78 }
  - { offset: 0x3F36, size: 0x8, addend: 0x0, symName: __ZN5boost4asio6detail10socket_ops9inet_ntopEiPKvPcmmRNS_6system10error_codeE, symObjAddr: 0xEBE4, symBinAddr: 0x10000F9B4, symSize: 0x240 }
  - { offset: 0x4011, size: 0x8, addend: 0x0, symName: __ZN5boost4asio6detail10socket_ops21host_to_network_shortEt, symObjAddr: 0xFBD4, symBinAddr: 0x1000109A4, symSize: 0x38 }
  - { offset: 0x403F, size: 0x8, addend: 0x0, symName: __ZN5boost4asio6detail10socket_ops6socketEiiiRNS_6system10error_codeE, symObjAddr: 0x18640, symBinAddr: 0x100019410, symSize: 0xE8 }
  - { offset: 0x40C7, size: 0x8, addend: 0x0, symName: __ZN5boost4asio6detail10socket_ops5closeEiRhbRNS_6system10error_codeE, symObjAddr: 0x18AB8, symBinAddr: 0x100019888, symSize: 0x288 }
  - { offset: 0x419A, size: 0x8, addend: 0x0, symName: __ZN5boost4asio6detail10socket_ops10setsockoptEiRhiiPKvmRNS_6system10error_codeE, symObjAddr: 0x18D40, symBinAddr: 0x100019B10, symSize: 0x250 }
  - { offset: 0x4231, size: 0x8, addend: 0x0, symName: __ZN5boost4asio6detail10socket_ops15call_setsockoptIjEEiM6msghdrT_iiiPKvm, symObjAddr: 0x19110, symBinAddr: 0x100019EE0, symSize: 0x4C }
  - { offset: 0x42AF, size: 0x8, addend: 0x0, symName: __ZN5boost4asio6detail10socket_ops4bindEiPKvmRNS_6system10error_codeE, symObjAddr: 0x19364, symBinAddr: 0x10001A134, symSize: 0x94 }
  - { offset: 0x4319, size: 0x8, addend: 0x0, symName: __ZN5boost4asio6detail10socket_ops9call_bindIjEEiM6msghdrT_iPKvm, symObjAddr: 0x19440, symBinAddr: 0x10001A210, symSize: 0x3C }
  - { offset: 0x4379, size: 0x8, addend: 0x0, symName: __ZN5boost4asio6detail10socket_ops20host_to_network_longEj, symObjAddr: 0x1A498, symBinAddr: 0x10001B268, symSize: 0x34 }
  - { offset: 0x43A7, size: 0x8, addend: 0x0, symName: __ZN5boost4asio6detail10socket_ops20network_to_host_longEj, symObjAddr: 0x1ADB8, symBinAddr: 0x10001BB88, symSize: 0x34 }
  - { offset: 0x43D5, size: 0x8, addend: 0x0, symName: __ZN5boost4asio6detail10socket_ops12sync_sendto1EihPKvmiS4_mRNS_6system10error_codeE, symObjAddr: 0x1AFA8, symBinAddr: 0x10001BD78, symSize: 0x180 }
  - { offset: 0x448A, size: 0x8, addend: 0x0, symName: __ZN5boost4asio6detail10socket_ops7sendto1EiPKvmiS4_mRNS_6system10error_codeE, symObjAddr: 0x1B188, symBinAddr: 0x10001BF58, symSize: 0x74 }
  - { offset: 0x4521, size: 0x8, addend: 0x0, symName: __ZN5boost4asio6detail10socket_ops10poll_writeEihiRNS_6system10error_codeE, symObjAddr: 0x1B230, symBinAddr: 0x10001C000, symSize: 0x114 }
  - { offset: 0x45A9, size: 0x8, addend: 0x0, symName: __ZN5boost4asio6detail10socket_ops11call_sendtoIjEElM6msghdrT_iPKvmiS8_m, symObjAddr: 0x1B344, symBinAddr: 0x10001C114, symSize: 0x54 }
  - { offset: 0x4636, size: 0x8, addend: 0x0, symName: __ZN5boost4asio6detail10socket_ops14sync_recvfrom1EihPvmiS3_PmRNS_6system10error_codeE, symObjAddr: 0x1C2C4, symBinAddr: 0x10001D094, symSize: 0x180 }
  - { offset: 0x46EB, size: 0x8, addend: 0x0, symName: __ZN5boost4asio6detail10socket_ops9recvfrom1EiPvmiS3_PmRNS_6system10error_codeE, symObjAddr: 0x1C4CC, symBinAddr: 0x10001D29C, symSize: 0x74 }
  - { offset: 0x4782, size: 0x8, addend: 0x0, symName: __ZN5boost4asio6detail10socket_ops9poll_readEihiRNS_6system10error_codeE, symObjAddr: 0x1C540, symBinAddr: 0x10001D310, symSize: 0x114 }
  - { offset: 0x480A, size: 0x8, addend: 0x0, symName: __ZN5boost4asio6detail10socket_ops13call_recvfromIjEElM6msghdrT_iPvmiS7_Pm, symObjAddr: 0x1C654, symBinAddr: 0x10001D424, symSize: 0x108 }
  - { offset: 0x48B5, size: 0x8, addend: 0x0, symName: __ZN5boost4asio6detail10socket_ops11getsocknameEiPvPmRNS_6system10error_codeE, symObjAddr: 0x1C8E4, symBinAddr: 0x10001D6B4, symSize: 0x94 }
  - { offset: 0x491F, size: 0x8, addend: 0x0, symName: __ZN5boost4asio6detail10socket_ops16call_getsocknameIjEEiM6msghdrT_iPvPm, symObjAddr: 0x1C9AC, symBinAddr: 0x10001D77C, symSize: 0x58 }
  - { offset: 0x499D, size: 0x8, addend: 0x0, symName: __ZN5boost4asio6detail10socket_ops21network_to_host_shortEt, symObjAddr: 0x1CC7C, symBinAddr: 0x10001DA4C, symSize: 0x38 }
  - { offset: 0x4A41, size: 0x8, addend: 0x0, symName: __ZN5boost4asio6detail15keyword_tss_ptrINS1_10call_stackINS1_14thread_contextENS1_16thread_info_baseEE7contextEE6value_E, symObjAddr: 0x217B0, symBinAddr: 0x1000281B0, symSize: 0x0 }
  - { offset: 0x4A6F, size: 0x8, addend: 0x0, symName: __ZN5boost4asio6detail17posix_global_implINS0_14system_contextEE11static_ptr_E, symObjAddr: 0x1E518, symBinAddr: 0x1000281A8, symSize: 0x0 }
  - { offset: 0x519E, size: 0x8, addend: 0x0, symName: __ZN5boost4asio6detail11throw_errorERKNS_6system10error_codeEPKcRKNS_15source_locationE, symObjAddr: 0x4AB8, symBinAddr: 0x100005888, symSize: 0x48 }
  - { offset: 0x51E2, size: 0x8, addend: 0x0, symName: __ZN5boost4asio6detail14do_throw_errorERKNS_6system10error_codeEPKcRKNS_15source_locationE, symObjAddr: 0x4C8C, symBinAddr: 0x100005A5C, symSize: 0x60 }
  - { offset: 0x530F, size: 0x8, addend: 0x0, symName: __ZN5boost4asio6detail11throw_errorERKNS_6system10error_codeERKNS_15source_locationE, symObjAddr: 0x735C, symBinAddr: 0x10000812C, symSize: 0x40 }
  - { offset: 0x5345, size: 0x8, addend: 0x0, symName: __ZN5boost4asio6detail10config_getIbEET_RKNS0_14config_serviceEPKcS8_S3_NSt3__117integral_constantIbLb1EEE, symObjAddr: 0x818C, symBinAddr: 0x100008F5C, symSize: 0x1C0 }
  - { offset: 0x53F5, size: 0x8, addend: 0x0, symName: __ZN5boost4asio6detail10config_getIiEET_RKNS0_14config_serviceEPKcS8_S3_NSt3__117integral_constantIbLb0EEE, symObjAddr: 0x8944, symBinAddr: 0x100009714, symSize: 0x1B8 }
  - { offset: 0x54AC, size: 0x8, addend: 0x0, symName: __ZN5boost4asio6detail10config_getIjEET_RKNS0_14config_serviceEPKcS8_S3_NSt3__117integral_constantIbLb0EEE, symObjAddr: 0x8D54, symBinAddr: 0x100009B24, symSize: 0x198 }
  - { offset: 0x5746, size: 0x8, addend: 0x0, symName: __ZN5boost4asio6detail14do_throw_errorERKNS_6system10error_codeERKNS_15source_locationE, symObjAddr: 0x9480, symBinAddr: 0x10000A250, symSize: 0x58 }
  - { offset: 0x57F2, size: 0x8, addend: 0x0, symName: __ZN5boost4asio6detail10config_getIlEET_RKNS0_14config_serviceEPKcS8_S3_NSt3__117integral_constantIbLb0EEE, symObjAddr: 0xB264, symBinAddr: 0x10000C034, symSize: 0x1B8 }
  - { offset: 0x58AA, size: 0x8, addend: 0x0, symName: __ZN5boost4asio6detail9incrementERNSt3__16atomicIlEEl, symObjAddr: 0xCB50, symBinAddr: 0x10000D920, symSize: 0x2C }
  - { offset: 0x8EEC, size: 0x8, addend: 0x0, symName: __ZN5boost4asio9execution6detail10blocking_tILi0EE5neverE, symObjAddr: 0x21690, symBinAddr: 0x100022C18, symSize: 0x0 }
  - { offset: 0x8EFF, size: 0x8, addend: 0x0, symName: __ZN5boost4asio9execution6detail10blocking_tILi0EE8possiblyE, symObjAddr: 0x21691, symBinAddr: 0x100022C19, symSize: 0x0 }
  - { offset: 0x8F12, size: 0x8, addend: 0x0, symName: __ZN5boost4asio9execution6detail10blocking_tILi0EE6alwaysE, symObjAddr: 0x21590, symBinAddr: 0x100022B18, symSize: 0x0 }
  - { offset: 0x9274, size: 0x8, addend: 0x0, symName: __ZN5boost4asio9execution6detail14relationship_tILi0EE12continuationE, symObjAddr: 0x21750, symBinAddr: 0x100022CD8, symSize: 0x0 }
  - { offset: 0x9287, size: 0x8, addend: 0x0, symName: __ZN5boost4asio9execution6detail14relationship_tILi0EE4forkE, symObjAddr: 0x21751, symBinAddr: 0x100022CD9, symSize: 0x0 }
  - { offset: 0x9294, size: 0x8, addend: 0x0, symName: __ZN5boost4asio9execution6detaileqERKNS2_10blocking_tILi0EEES6_, symObjAddr: 0x10AD8, symBinAddr: 0x1000118A8, symSize: 0x30 }
  - { offset: 0x9359, size: 0x8, addend: 0x0, symName: __ZN5boost4asio9execution8blockingE, symObjAddr: 0x2158C, symBinAddr: 0x100022B14, symSize: 0x0 }
  - { offset: 0x972A, size: 0x8, addend: 0x0, symName: __ZN5boost4asio9execution7contextE, symObjAddr: 0x21692, symBinAddr: 0x100022C1A, symSize: 0x0 }
  - { offset: 0x9744, size: 0x8, addend: 0x0, symName: __ZN5boost4asio9execution12relationshipE, symObjAddr: 0x2174C, symBinAddr: 0x100022CD4, symSize: 0x0 }
  - { offset: 0x97B7, size: 0x8, addend: 0x0, symName: __ZN5boost4asio9execution5queryINS0_10io_context19basic_executor_typeINSt3__19allocatorIvEELm0EEERNS0_17execution_contextEEET0_RKT_RKNS1_12context_as_tISB_EEPNS5_9enable_ifIXsr7is_sameISA_SB_EE5valueEvE4typeEPNSJ_IXsr9can_queryISE_RKNS1_6detail9context_tILi0EEEEE5valueEvE4typeE, symObjAddr: 0x13684, symBinAddr: 0x100014454, symSize: 0x40 }
  - { offset: 0x9813, size: 0x8, addend: 0x0, symName: __ZN5boost4asio9execution5queryINS0_10io_context19basic_executor_typeINSt3__19allocatorIvEELm0EEENS1_6detail8blocking10possibly_tILi0EEEEENS0_12query_resultIRKT_RKSC_E4typeESG_RKNS1_11prefer_onlyIT0_EEPNS5_9enable_ifIXsr7is_sameISM_SC_EE5valueEvE4typeEPNSQ_IXsr9can_queryISG_SI_EE5valueEvE4typeE, symObjAddr: 0x14E78, symBinAddr: 0x100015C48, symSize: 0x44 }
  - { offset: 0x9873, size: 0x8, addend: 0x0, symName: __ZN5boost4asio9execution6preferINS0_10io_context19basic_executor_typeINSt3__19allocatorIvEELm0EEENS1_6detail8blocking10possibly_tILi0EEEEENS0_13prefer_resultIRKT_JRKSC_EE4typeESG_RKNS1_11prefer_onlyIT0_EEPNS5_9enable_ifIXsr7is_sameISM_SC_EE5valueEvE4typeEPNSQ_IXsr10can_preferISG_SI_EE5valueEvE4typeE, symObjAddr: 0x15004, symBinAddr: 0x100015DD4, symSize: 0x44 }
  - { offset: 0x98D3, size: 0x8, addend: 0x0, symName: __ZN5boost4asio9execution6preferINS0_10io_context19basic_executor_typeINSt3__19allocatorIvEELm0EEENS1_6detail16outstanding_work9tracked_tILi0EEEEENS0_13prefer_resultIRKT_JRKSC_EE4typeESG_RKNS1_11prefer_onlyIT0_EEPNS5_9enable_ifIXsr7is_sameISM_SC_EE5valueEvE4typeEPNSQ_IXsr10can_preferISG_SI_EE5valueEvE4typeE, symObjAddr: 0x15320, symBinAddr: 0x1000160F0, symSize: 0x44 }
  - { offset: 0x9933, size: 0x8, addend: 0x0, symName: __ZN5boost4asio9execution5queryINS0_10io_context19basic_executor_typeINSt3__19allocatorIvEELm4EEERNS0_17execution_contextEEET0_RKT_RKNS1_12context_as_tISB_EEPNS5_9enable_ifIXsr7is_sameISA_SB_EE5valueEvE4typeEPNSJ_IXsr9can_queryISE_RKNS1_6detail9context_tILi0EEEEE5valueEvE4typeE, symObjAddr: 0x1647C, symBinAddr: 0x10001724C, symSize: 0x40 }
  - { offset: 0x998F, size: 0x8, addend: 0x0, symName: __ZN5boost4asio9execution5queryINS0_10io_context19basic_executor_typeINSt3__19allocatorIvEELm4EEENS1_6detail8blocking10possibly_tILi0EEEEENS0_12query_resultIRKT_RKSC_E4typeESG_RKNS1_11prefer_onlyIT0_EEPNS5_9enable_ifIXsr7is_sameISM_SC_EE5valueEvE4typeEPNSQ_IXsr9can_queryISG_SI_EE5valueEvE4typeE, symObjAddr: 0x16958, symBinAddr: 0x100017728, symSize: 0x44 }
  - { offset: 0x99EF, size: 0x8, addend: 0x0, symName: __ZN5boost4asio9execution6preferINS0_10io_context19basic_executor_typeINSt3__19allocatorIvEELm4EEENS1_6detail8blocking10possibly_tILi0EEEEENS0_13prefer_resultIRKT_JRKSC_EE4typeESG_RKNS1_11prefer_onlyIT0_EEPNS5_9enable_ifIXsr7is_sameISM_SC_EE5valueEvE4typeEPNSQ_IXsr10can_preferISG_SI_EE5valueEvE4typeE, symObjAddr: 0x16AE4, symBinAddr: 0x1000178B4, symSize: 0x44 }
  - { offset: 0x9A4F, size: 0x8, addend: 0x0, symName: __ZN5boost4asio9execution6preferINS0_10io_context19basic_executor_typeINSt3__19allocatorIvEELm4EEENS1_6detail16outstanding_work9tracked_tILi0EEEEENS0_13prefer_resultIRKT_JRKSC_EE4typeESG_RKNS1_11prefer_onlyIT0_EEPNS5_9enable_ifIXsr7is_sameISM_SC_EE5valueEvE4typeEPNSQ_IXsr10can_preferISG_SI_EE5valueEvE4typeE, symObjAddr: 0x16D98, symBinAddr: 0x100017B68, symSize: 0x3C }
  - { offset: 0x9AAF, size: 0x8, addend: 0x0, symName: __ZN5boost4asio9execution6preferINS0_10io_context19basic_executor_typeINSt3__19allocatorIvEELm4EEENS1_6detail16outstanding_work11untracked_tILi0EEEEENS0_13prefer_resultIRKT_JRKSC_EE4typeESG_RKNS1_11prefer_onlyIT0_EEPNS5_9enable_ifIXsr7is_sameISM_SC_EE5valueEvE4typeEPNSQ_IXsr10can_preferISG_SI_EE5valueEvE4typeE, symObjAddr: 0x16FD4, symBinAddr: 0x100017DA4, symSize: 0x44 }
  - { offset: 0x9B0F, size: 0x8, addend: 0x0, symName: __ZN5boost4asio9execution5queryINS0_10io_context19basic_executor_typeINSt3__19allocatorIvEELm4EEENS1_6detail12relationship6fork_tILi0EEEEENS0_12query_resultIRKT_RKSC_E4typeESG_RKNS1_11prefer_onlyIT0_EEPNS5_9enable_ifIXsr7is_sameISM_SC_EE5valueEvE4typeEPNSQ_IXsr9can_queryISG_SI_EE5valueEvE4typeE, symObjAddr: 0x171A4, symBinAddr: 0x100017F74, symSize: 0x44 }
  - { offset: 0x9B6F, size: 0x8, addend: 0x0, symName: __ZN5boost4asio9execution6preferINS0_10io_context19basic_executor_typeINSt3__19allocatorIvEELm4EEENS1_6detail12relationship6fork_tILi0EEEEENS0_13prefer_resultIRKT_JRKSC_EE4typeESG_RKNS1_11prefer_onlyIT0_EEPNS5_9enable_ifIXsr7is_sameISM_SC_EE5valueEvE4typeEPNSQ_IXsr10can_preferISG_SI_EE5valueEvE4typeE, symObjAddr: 0x17420, symBinAddr: 0x1000181F0, symSize: 0x44 }
  - { offset: 0x9BCF, size: 0x8, addend: 0x0, symName: __ZN5boost4asio9execution5queryINS0_10io_context19basic_executor_typeINSt3__19allocatorIvEELm4EEENS1_6detail12relationship14continuation_tILi0EEEEENS0_12query_resultIRKT_RKSC_E4typeESG_RKNS1_11prefer_onlyIT0_EEPNS5_9enable_ifIXsr7is_sameISM_SC_EE5valueEvE4typeEPNSQ_IXsr9can_queryISG_SI_EE5valueEvE4typeE, symObjAddr: 0x175F4, symBinAddr: 0x1000183C4, symSize: 0x44 }
  - { offset: 0x9C2F, size: 0x8, addend: 0x0, symName: __ZN5boost4asio9execution6preferINS0_10io_context19basic_executor_typeINSt3__19allocatorIvEELm4EEENS1_6detail12relationship14continuation_tILi0EEEEENS0_13prefer_resultIRKT_JRKSC_EE4typeESG_RKNS1_11prefer_onlyIT0_EEPNS5_9enable_ifIXsr7is_sameISM_SC_EE5valueEvE4typeEPNSQ_IXsr10can_preferISG_SI_EE5valueEvE4typeE, symObjAddr: 0x17780, symBinAddr: 0x100018550, symSize: 0x44 }
  - { offset: 0x9C8F, size: 0x8, addend: 0x0, symName: __ZN5boost4asio9execution6preferINS0_10io_context19basic_executor_typeINSt3__19allocatorIvEELm0EEENS1_6detail16outstanding_work11untracked_tILi0EEEEENS0_13prefer_resultIRKT_JRKSC_EE4typeESG_RKNS1_11prefer_onlyIT0_EEPNS5_9enable_ifIXsr7is_sameISM_SC_EE5valueEvE4typeEPNSQ_IXsr10can_preferISG_SI_EE5valueEvE4typeE, symObjAddr: 0x17A90, symBinAddr: 0x100018860, symSize: 0x3C }
  - { offset: 0x9CEF, size: 0x8, addend: 0x0, symName: __ZN5boost4asio9execution5queryINS0_10io_context19basic_executor_typeINSt3__19allocatorIvEELm0EEENS1_6detail12relationship6fork_tILi0EEEEENS0_12query_resultIRKT_RKSC_E4typeESG_RKNS1_11prefer_onlyIT0_EEPNS5_9enable_ifIXsr7is_sameISM_SC_EE5valueEvE4typeEPNSQ_IXsr9can_queryISG_SI_EE5valueEvE4typeE, symObjAddr: 0x17BEC, symBinAddr: 0x1000189BC, symSize: 0x44 }
  - { offset: 0x9D4F, size: 0x8, addend: 0x0, symName: __ZN5boost4asio9execution6preferINS0_10io_context19basic_executor_typeINSt3__19allocatorIvEELm0EEENS1_6detail12relationship6fork_tILi0EEEEENS0_13prefer_resultIRKT_JRKSC_EE4typeESG_RKNS1_11prefer_onlyIT0_EEPNS5_9enable_ifIXsr7is_sameISM_SC_EE5valueEvE4typeEPNSQ_IXsr10can_preferISG_SI_EE5valueEvE4typeE, symObjAddr: 0x17DDC, symBinAddr: 0x100018BAC, symSize: 0x44 }
  - { offset: 0x9DAF, size: 0x8, addend: 0x0, symName: __ZN5boost4asio9execution5queryINS0_10io_context19basic_executor_typeINSt3__19allocatorIvEELm0EEENS1_6detail12relationship14continuation_tILi0EEEEENS0_12query_resultIRKT_RKSC_E4typeESG_RKNS1_11prefer_onlyIT0_EEPNS5_9enable_ifIXsr7is_sameISM_SC_EE5valueEvE4typeEPNSQ_IXsr9can_queryISG_SI_EE5valueEvE4typeE, symObjAddr: 0x17FB0, symBinAddr: 0x100018D80, symSize: 0x44 }
  - { offset: 0x9E0F, size: 0x8, addend: 0x0, symName: __ZN5boost4asio9execution6preferINS0_10io_context19basic_executor_typeINSt3__19allocatorIvEELm0EEENS1_6detail12relationship14continuation_tILi0EEEEENS0_13prefer_resultIRKT_JRKSC_EE4typeESG_RKNS1_11prefer_onlyIT0_EEPNS5_9enable_ifIXsr7is_sameISM_SC_EE5valueEvE4typeEPNSQ_IXsr10can_preferISG_SI_EE5valueEvE4typeE, symObjAddr: 0x1813C, symBinAddr: 0x100018F0C, symSize: 0x44 }
  - { offset: 0xAB41, size: 0x8, addend: 0x0, symName: __ZN5boost4asio2ip12make_addressEPKc, symObjAddr: 0xB90, symBinAddr: 0x100001960, symSize: 0x68 }
  - { offset: 0xAB8A, size: 0x8, addend: 0x0, symName: __ZN5boost4asio2iplsIcNSt3__111char_traitsIcEEEERNS3_13basic_ostreamIT_T0_EESA_RKNS1_7addressE, symObjAddr: 0xE74, symBinAddr: 0x100001C44, symSize: 0x80 }
  - { offset: 0xABD6, size: 0x8, addend: 0x0, symName: __ZN5boost4asio2ip12make_addressEPKcRNS_6system10error_codeE, symObjAddr: 0xDAB8, symBinAddr: 0x10000E888, symSize: 0x94 }
  - { offset: 0xAC2C, size: 0x8, addend: 0x0, symName: __ZN5boost4asio2ip15make_address_v6EPKcRNS_6system10error_codeE, symObjAddr: 0xDB4C, symBinAddr: 0x10000E91C, symSize: 0x100 }
  - { offset: 0xAC82, size: 0x8, addend: 0x0, symName: __ZN5boost4asio2ip15make_address_v4EPKcRNS_6system10error_codeE, symObjAddr: 0xDC80, symBinAddr: 0x10000EA50, symSize: 0x80 }
  - { offset: 0xB99A, size: 0x8, addend: 0x0, symName: __ZN5boost4asio6bufferIcNSt3__111char_traitsIcEENS2_9allocatorIcEEEENS0_14mutable_bufferERNS2_12basic_stringIT_T0_T1_EE, symObjAddr: 0xCD8, symBinAddr: 0x100001AA8, symSize: 0x7C }
  - { offset: 0xB9E3, size: 0x8, addend: 0x0, symName: __ZN5boost4asio6bufferIcLm1024EEENS0_14mutable_bufferERNSt3__15arrayIT_XT0_EEE, symObjAddr: 0xE2C, symBinAddr: 0x100001BFC, symSize: 0x48 }
  - { offset: 0xBA25, size: 0x8, addend: 0x0, symName: __ZN5boost4asio6bufferIcNSt3__111char_traitsIcEEEENS0_12const_bufferENS2_17basic_string_viewIT_T0_EE, symObjAddr: 0x10E0, symBinAddr: 0x100001EB0, symSize: 0x84 }
  - { offset: 0xBA65, size: 0x8, addend: 0x0, symName: __ZN5boost4asio6bufferIcNSt3__111char_traitsIcEENS2_9allocatorIcEEEENS0_12const_bufferERKNS2_12basic_stringIT_T0_T1_EE, symObjAddr: 0x1244, symBinAddr: 0x100002014, symSize: 0x48 }
  - { offset: 0xBB23, size: 0x8, addend: 0x0, symName: __ZN5boost4asio12make_serviceINS0_6detail36config_from_concurrency_hint_serviceEJiEEERT_RNS0_17execution_contextEDpOT0_, symObjAddr: 0x28C4, symBinAddr: 0x100003694, symSize: 0xF0 }
  - { offset: 0xBB8D, size: 0x8, addend: 0x0, symName: __ZN5boost4asio11add_serviceINS0_6detail9schedulerEEEvRNS0_17execution_contextEPT_, symObjAddr: 0x66B4, symBinAddr: 0x100007484, symSize: 0x30 }
  - { offset: 0xBBCC, size: 0x8, addend: 0x0, symName: __ZN5boost4asio11use_serviceINS0_6detail14kqueue_reactorEEERT_RNS0_17execution_contextE, symObjAddr: 0x6870, symBinAddr: 0x100007640, symSize: 0x28 }
  - { offset: 0xBC01, size: 0x8, addend: 0x0, symName: __ZN5boost4asio11use_serviceINS0_6detail9schedulerEEERT_RNS0_17execution_contextE, symObjAddr: 0x707C, symBinAddr: 0x100007E4C, symSize: 0x28 }
  - { offset: 0xBC57, size: 0x8, addend: 0x0, symName: __ZN5boost4asio11use_serviceINS0_14config_serviceEEERT_RNS0_17execution_contextE, symObjAddr: 0x8048, symBinAddr: 0x100008E18, symSize: 0x28 }
  - { offset: 0xBC97, size: 0x8, addend: 0x0, symName: __ZN5boost4asio14aligned_deleteEPv, symObjAddr: 0xC450, symBinAddr: 0x10000D220, symSize: 0x24 }
  - { offset: 0xBCBF, size: 0x8, addend: 0x0, symName: __ZN5boost4asio11use_serviceINS0_6detail23reactive_socket_serviceINS0_2ip3udpEEEEERT_RNS0_10io_contextE, symObjAddr: 0x10138, symBinAddr: 0x100010F08, symSize: 0x2C }
  - { offset: 0xBD0A, size: 0x8, addend: 0x0, symName: __ZN5boost4asioeqERKNS0_10io_context19basic_executor_typeINSt3__19allocatorIvEELm0EEES8_, symObjAddr: 0x10D2C, symBinAddr: 0x100011AFC, symSize: 0x64 }
  - { offset: 0xBD47, size: 0x8, addend: 0x0, symName: __ZN5boost4asio11aligned_newEmm, symObjAddr: 0x11BF8, symBinAddr: 0x1000129C8, symSize: 0x11C }
  - { offset: 0xBEA8, size: 0x8, addend: 0x0, symName: __ZN5boost4asioeqERKNS0_10io_context19basic_executor_typeINSt3__19allocatorIvEELm4EEES8_, symObjAddr: 0x1588C, symBinAddr: 0x10001665C, symSize: 0x64 }
  - { offset: 0xCC46, size: 0x8, addend: 0x0, symName: __ZN5boost6system6detail29system_error_category_messageEi, symObjAddr: 0x1BFC, symBinAddr: 0x1000029CC, symSize: 0x2C }
  - { offset: 0xCC72, size: 0x8, addend: 0x0, symName: __ZN5boost6system6detail30generic_error_category_messageEi, symObjAddr: 0x1C28, symBinAddr: 0x1000029F8, symSize: 0x6C }
  - { offset: 0xCCAC, size: 0x8, addend: 0x0, symName: __ZN5boost6system6detail29system_error_category_messageEiPcm, symObjAddr: 0x1C94, symBinAddr: 0x100002A64, symSize: 0x34 }
  - { offset: 0xCCF4, size: 0x8, addend: 0x0, symName: __ZN5boost6system6detail30generic_error_category_messageEiPcm, symObjAddr: 0x1CC8, symBinAddr: 0x100002A98, symSize: 0xE8 }
  - { offset: 0xCD4A, size: 0x8, addend: 0x0, symName: __ZN5boost6system6detail11failed_implEiRKNS0_14error_categoryE, symObjAddr: 0x4BAC, symBinAddr: 0x10000597C, symSize: 0xB8 }
  - { offset: 0xCD84, size: 0x8, addend: 0x0, symName: __ZN5boost6system6detail16interop_categoryEv, symObjAddr: 0x59D8, symBinAddr: 0x1000067A8, symSize: 0xC }
  - { offset: 0xCDA1, size: 0x8, addend: 0x0, symName: __ZN5boost6system6detail10append_intERNSt3__112basic_stringIcNS2_11char_traitsIcEENS2_9allocatorIcEEEEi, symObjAddr: 0x5AD8, symBinAddr: 0x1000068A8, symSize: 0x88 }
  - { offset: 0xD0FC, size: 0x8, addend: 0x0, symName: __ZN5boost6system15system_categoryEv, symObjAddr: 0x15AC, symBinAddr: 0x10000237C, symSize: 0xC }
  - { offset: 0xD119, size: 0x8, addend: 0x0, symName: __ZN5boost6systemeqERKNS0_15error_conditionES3_, symObjAddr: 0x17EC, symBinAddr: 0x1000025BC, symSize: 0x10C }
  - { offset: 0xD153, size: 0x8, addend: 0x0, symName: __ZN5boost6systemeqERKNS0_14error_categoryES3_, symObjAddr: 0x1954, symBinAddr: 0x100002724, symSize: 0x6C }
  - { offset: 0xD27E, size: 0x8, addend: 0x0, symName: __ZN5boost6systemeqERKNS0_10error_codeES3_, symObjAddr: 0x18F90, symBinAddr: 0x100019D60, symSize: 0x144 }
  - { offset: 0xD305, size: 0x8, addend: 0x0, symName: __ZN5boost6systemneERKNS0_10error_codeES3_, symObjAddr: 0x1B1FC, symBinAddr: 0x10001BFCC, symSize: 0x34 }
  - { offset: 0xDA4D, size: 0x8, addend: 0x0, symName: __ZN5boost16exception_detail20copy_boost_exceptionEPNS_9exceptionEPKS1_, symObjAddr: 0x3C1C, symBinAddr: 0x1000049EC, symSize: 0x124 }
  - { offset: 0xDAAA, size: 0x8, addend: 0x0, symName: __ZN5boost16exception_detail8set_infoINS_10wrapexceptINS_6system12system_errorEEEEERKT_S8_RKNS_10error_infoINS_11throw_file_EPKcEE, symObjAddr: 0x5EC8, symBinAddr: 0x100006C98, symSize: 0x28 }
  - { offset: 0xDAF0, size: 0x8, addend: 0x0, symName: __ZN5boost16exception_detail8set_infoINS_10wrapexceptINS_6system12system_errorEEEEERKT_S8_RKNS_10error_infoINS_11throw_line_EiEE, symObjAddr: 0x5F24, symBinAddr: 0x100006CF4, symSize: 0x28 }
  - { offset: 0xDB36, size: 0x8, addend: 0x0, symName: __ZN5boost16exception_detail8set_infoINS_10wrapexceptINS_6system12system_errorEEEEERKT_S8_RKNS_10error_infoINS_15throw_function_EPKcEE, symObjAddr: 0x5F80, symBinAddr: 0x100006D50, symSize: 0x28 }
  - { offset: 0xDB7C, size: 0x8, addend: 0x0, symName: __ZN5boost16exception_detail8set_infoINS_10wrapexceptINS_6system12system_errorEEEEERKT_S8_RKNS_10error_infoINS_13throw_column_EiEE, symObjAddr: 0x5FDC, symBinAddr: 0x100006DAC, symSize: 0x28 }
  - { offset: 0xE2A9, size: 0x8, addend: 0x0, symName: __ZN5boost15throw_exceptionINS_4asio21invalid_service_ownerEEEvRKT_, symObjAddr: 0x3330, symBinAddr: 0x100004100, symSize: 0x6C }
  - { offset: 0xE2DA, size: 0x8, addend: 0x0, symName: __ZN5boost15throw_exceptionINS_4asio22service_already_existsEEEvRKT_, symObjAddr: 0x3530, symBinAddr: 0x100004300, symSize: 0x6C }
  - { offset: 0xE30B, size: 0x8, addend: 0x0, symName: __ZN5boost36throw_exception_assert_compatibilityERKSt9exception, symObjAddr: 0x3620, symBinAddr: 0x1000043F0, symSize: 0x10 }
  - { offset: 0xE32F, size: 0x8, addend: 0x0, symName: __ZN5boost15throw_exceptionINS_6system12system_errorEEEvRKT_RKNS_15source_locationE, symObjAddr: 0x4DD0, symBinAddr: 0x100005BA0, symSize: 0x74 }
  - { offset: 0xE46B, size: 0x8, addend: 0x0, symName: __ZN5boost15throw_exceptionISt12out_of_rangeEEvRKT_, symObjAddr: 0x834C, symBinAddr: 0x10000911C, symSize: 0x6C }
  - { offset: 0xE4A1, size: 0x8, addend: 0x0, symName: __ZN5boost9alignment12aligned_freeEPv, symObjAddr: 0xC474, symBinAddr: 0x10000D244, symSize: 0x2C }
  - { offset: 0xE4C9, size: 0x8, addend: 0x0, symName: __ZN5boost9alignment13aligned_allocEmm, symObjAddr: 0x11D14, symBinAddr: 0x100012AE4, symSize: 0xB8 }
  - { offset: 0xE516, size: 0x8, addend: 0x0, symName: __ZN5boost9alignment6detail12is_alignmentEm, symObjAddr: 0x11E38, symBinAddr: 0x100012C08, symSize: 0x50 }
  - { offset: 0xE544, size: 0x8, addend: 0x0, symName: __ZN5boost15throw_exceptionISt9bad_allocEEvRKT_, symObjAddr: 0x11DCC, symBinAddr: 0x100012B9C, symSize: 0x6C }
  - { offset: 0xE575, size: 0x8, addend: 0x0, symName: __ZN5boost15throw_exceptionINS_4asio9execution12bad_executorEEEvRKT_, symObjAddr: 0x13D38, symBinAddr: 0x100014B08, symSize: 0x6C }
  - { offset: 0xE5A6, size: 0x8, addend: 0x0, symName: __ZN5boost15throw_exceptionINS_4asio2ip16bad_address_castEEEvRKT_, symObjAddr: 0x1A718, symBinAddr: 0x10001B4E8, symSize: 0x6C }
  - { offset: 0x145CB, size: 0x8, addend: 0x0, symName: __ZNSt3__16chronossB8ne180100IxNS_5ratioILl1ELl1EEExS3_EEDaRKNS0_8durationIT_T0_EERKNS5_IT1_T2_EE, symObjAddr: 0x19B40, symBinAddr: 0x10001A910, symSize: 0x8C }
  - { offset: 0x14638, size: 0x8, addend: 0x0, symName: __ZNSt3__16chronossB8ne180100IxNS_5ratioILl1ELl1EEEeS3_EEDaRKNS0_8durationIT_T0_EERKNS5_IT1_T2_EE, symObjAddr: 0x19C8C, symBinAddr: 0x10001AA5C, symSize: 0xA4 }
  - { offset: 0x14902, size: 0x8, addend: 0x0, symName: __ZNSt3__16chronossB8ne180100IxNS_5ratioILl1ELl1000000000EEExNS2_ILl1ELl1EEEEEDaRKNS0_8durationIT_T0_EERKNS6_IT1_T2_EE, symObjAddr: 0x19D84, symBinAddr: 0x10001AB54, symSize: 0x90 }
  - { offset: 0x14D12, size: 0x8, addend: 0x0, symName: __ZNSt3__16chrono13duration_castB8ne180100INS0_8durationIxNS_5ratioILl1ELl1000000000EEEEExNS3_ILl1ELl1EEELi0EEET_RKNS2_IT0_T1_EE, symObjAddr: 0x19D30, symBinAddr: 0x10001AB00, symSize: 0x30 }
  - { offset: 0x14DA0, size: 0x8, addend: 0x0, symName: __ZNSt3__16chrono13duration_castB8ne180100INS0_8durationIeNS_5ratioILl1ELl1EEEEExS4_Li0EEET_RKNS2_IT0_T1_EE, symObjAddr: 0x19FB0, symBinAddr: 0x10001AD80, symSize: 0x30 }
  - { offset: 0x155F5, size: 0x8, addend: 0x0, symName: __ZNSt3__117__cxx_atomic_loadB8ne180100IlEET_PKNS_22__cxx_atomic_base_implIS1_EENS_12memory_orderE, symObjAddr: 0xC0A0, symBinAddr: 0x10000CE70, symSize: 0x80 }
  - { offset: 0x15652, size: 0x8, addend: 0x0, symName: __ZNSt3__124__put_character_sequenceB8ne180100IcNS_11char_traitsIcEEEERNS_13basic_ostreamIT_T0_EES7_PKS4_m, symObjAddr: 0xEE24, symBinAddr: 0x10000FBF4, symSize: 0x1EC }
  - { offset: 0x166A5, size: 0x8, addend: 0x0, symName: __ZNSt3__117__cxx_atomic_loadB8ne180100IbEET_PKNS_22__cxx_atomic_base_implIS1_EENS_12memory_orderE, symObjAddr: 0x1A1E0, symBinAddr: 0x10001AFB0, symSize: 0x84 }
  - { offset: 0x18083, size: 0x8, addend: 0x0, symName: __ZNSt3__1lsB8ne180100INS_11char_traitsIcEEEERNS_13basic_ostreamIcT_EES6_PKc, symObjAddr: 0x2CC, symBinAddr: 0x10000109C, symSize: 0x48 }
  - { offset: 0x180C9, size: 0x8, addend: 0x0, symName: __ZNSt3__14endlB8ne180100IcNS_11char_traitsIcEEEERNS_13basic_ostreamIT_T0_EES7_, symObjAddr: 0x340, symBinAddr: 0x100001110, symSize: 0x58 }
  - { offset: 0x1810E, size: 0x8, addend: 0x0, symName: __ZNSt3__111this_thread9sleep_forB8ne180100IxNS_5ratioILl1ELl1EEEEEvRKNS_6chrono8durationIT_T0_EE, symObjAddr: 0x3FC, symBinAddr: 0x1000011CC, symSize: 0x110 }
  - { offset: 0x1860F, size: 0x8, addend: 0x0, symName: __ZNSt3__1lsB8ne180100INS_11char_traitsIcEEEERNS_13basic_ostreamIcT_EES6_c, symObjAddr: 0x11B4, symBinAddr: 0x100001F84, symSize: 0x34 }
  - { offset: 0x18655, size: 0x8, addend: 0x0, symName: __ZNSt3__1lsB8ne180100IcNS_11char_traitsIcEEEERNS_13basic_ostreamIT_T0_EES7_NS_17basic_string_viewIS4_S5_EE, symObjAddr: 0x11E8, symBinAddr: 0x100001FB8, symSize: 0x5C }
  - { offset: 0x186A4, size: 0x8, addend: 0x0, symName: __ZNSt3__112__to_addressB8ne180100IKcEEPT_S3_, symObjAddr: 0x20E8, symBinAddr: 0x100002EB8, symSize: 0x14 }
  - { offset: 0x1870C, size: 0x8, addend: 0x0, symName: __ZNSt3__1plB8ne180100IcNS_11char_traitsIcEENS_9allocatorIcEEEENS_12basic_stringIT_T0_T1_EEOS9_SA_, symObjAddr: 0x4FB4, symBinAddr: 0x100005D84, symSize: 0x40 }
  - { offset: 0x18764, size: 0x8, addend: 0x0, symName: __ZNSt3__1plB8ne180100IcNS_11char_traitsIcEENS_9allocatorIcEEEENS_12basic_stringIT_T0_T1_EEOS9_PKS6_, symObjAddr: 0x4FF4, symBinAddr: 0x100005DC4, symSize: 0x40 }
  - { offset: 0x18E08, size: 0x8, addend: 0x0, symName: __ZNSt3__122__cxx_atomic_fetch_addB8ne180100IlEET_PNS_22__cxx_atomic_base_implIS1_EES1_NS_12memory_orderE, symObjAddr: 0xB488, symBinAddr: 0x10000C258, symSize: 0xC8 }
  - { offset: 0x19052, size: 0x8, addend: 0x0, symName: __ZNSt3__122__cxx_atomic_fetch_subB8ne180100IlEET_PNS_22__cxx_atomic_base_implIS1_EES1_NS_12memory_orderE, symObjAddr: 0xCE88, symBinAddr: 0x10000DC58, symSize: 0xDC }
  - { offset: 0x190A7, size: 0x8, addend: 0x0, symName: __ZNSt3__118__constexpr_strlenB8ne180100EPKc, symObjAddr: 0xDA94, symBinAddr: 0x10000E864, symSize: 0x24 }
  - { offset: 0x190F9, size: 0x8, addend: 0x0, symName: __ZNSt3__118__cxx_atomic_storeB8ne180100IbEEvPNS_22__cxx_atomic_base_implIT_EES2_NS_12memory_orderE, symObjAddr: 0xE620, symBinAddr: 0x10000F3F0, symSize: 0x90 }
  - { offset: 0x1914A, size: 0x8, addend: 0x0, symName: __ZNSt3__116__pad_and_outputB8ne180100IcNS_11char_traitsIcEEEENS_19ostreambuf_iteratorIT_T0_EES6_PKS4_S8_S8_RNS_8ios_baseES4_, symObjAddr: 0xF02C, symBinAddr: 0x10000FDFC, symSize: 0x240 }
  - { offset: 0x19219, size: 0x8, addend: 0x0, symName: __ZNSt3__112__to_addressB8ne180100IcEEPT_S2_, symObjAddr: 0xF49C, symBinAddr: 0x10001026C, symSize: 0x14 }
  - { offset: 0x1924E, size: 0x8, addend: 0x0, symName: __ZNSt3__19use_facetB8ne180100INS_5ctypeIcEEEERKT_RKNS_6localeE, symObjAddr: 0xF6AC, symBinAddr: 0x10001047C, symSize: 0x2C }
  - { offset: 0x1972A, size: 0x8, addend: 0x0, symName: __ZNSt3__1eqB8ne180100IvvEEbRKNS_9allocatorIT_EERKNS1_IT0_EE, symObjAddr: 0x10D90, symBinAddr: 0x100011B60, symSize: 0x1C }
  - { offset: 0x19769, size: 0x8, addend: 0x0, symName: __ZNSt3__119atomic_thread_fenceB8ne180100ENS_12memory_orderE, symObjAddr: 0x11404, symBinAddr: 0x1000121D4, symSize: 0x24 }
  - { offset: 0x19792, size: 0x8, addend: 0x0, symName: __ZNSt3__125__cxx_atomic_thread_fenceB8ne180100ENS_12memory_orderE, symObjAddr: 0x11428, symBinAddr: 0x1000121F8, symSize: 0x68 }
  - { offset: 0x19909, size: 0x8, addend: 0x0, symName: __ZNSt3__1eqB8ne180100ERKNS_10error_codeES2_, symObjAddr: 0x1915C, symBinAddr: 0x100019F2C, symSize: 0x84 }
  - { offset: 0x19943, size: 0x8, addend: 0x0, symName: __ZNSt3__1gtB8ne180100ENS_15strong_orderingENS_20_CmpUnspecifiedParamE, symObjAddr: 0x19B1C, symBinAddr: 0x10001A8EC, symSize: 0x24 }
  - { offset: 0x19995, size: 0x8, addend: 0x0, symName: __ZNSt3__1ltB8ne180100ENS_16partial_orderingENS_20_CmpUnspecifiedParamE, symObjAddr: 0x19C38, symBinAddr: 0x10001AA08, symSize: 0x54 }
  - { offset: 0x199CB, size: 0x8, addend: 0x0, symName: __ZNSt3__1ltB8ne180100ENS_15strong_orderingENS_20_CmpUnspecifiedParamE, symObjAddr: 0x19D60, symBinAddr: 0x10001AB30, symSize: 0x24 }
  - { offset: 0x19FEB, size: 0x8, addend: 0x0, symName: __ZNSt3__122__libcpp_thread_createB8ne180100EPP17_opaque_pthread_tPFPvS3_ES3_, symObjAddr: 0x1B634, symBinAddr: 0x10001C404, symSize: 0x38 }
  - { offset: 0x1A037, size: 0x8, addend: 0x0, symName: __ZNSt3__114__thread_proxyB8ne180100INS_5tupleIJNS_10unique_ptrINS_15__thread_structENS_14default_deleteIS3_EEEEPFvvEEEEEEPvSA_, symObjAddr: 0x1B66C, symBinAddr: 0x10001C43C, symSize: 0x90 }
  - { offset: 0x1A197, size: 0x8, addend: 0x0, symName: __ZNSt3__13getB8ne180100ILm0EJNS_10unique_ptrINS_15__thread_structENS_14default_deleteIS2_EEEEPFvvEEEERNS_13tuple_elementIXT_ENS_5tupleIJDpT0_EEEE4typeERSC_, symObjAddr: 0x1BD1C, symBinAddr: 0x10001CAEC, symSize: 0x24 }
  - { offset: 0x1A1DF, size: 0x8, addend: 0x0, symName: __ZNSt3__116__thread_executeB8ne180100INS_10unique_ptrINS_15__thread_structENS_14default_deleteIS2_EEEEPFvvEJEJEEEvRNS_5tupleIJT_T0_DpT1_EEENS_15__tuple_indicesIJXspT2_EEEE, symObjAddr: 0x1BD40, symBinAddr: 0x10001CB10, symSize: 0x28 }
  - { offset: 0x1A22F, size: 0x8, addend: 0x0, symName: __ZNSt3__116__libcpp_tls_setB8ne180100EmPv, symObjAddr: 0x1BD68, symBinAddr: 0x10001CB38, symSize: 0x2C }
  - { offset: 0x1A26C, size: 0x8, addend: 0x0, symName: __ZNSt3__18__invokeB8ne180100IPFvvEJEEEDTclclsr3stdE7declvalIT_EEspclsr3stdE7declvalIT0_EEEEOS3_DpOS4_, symObjAddr: 0x1BDA8, symBinAddr: 0x10001CB78, symSize: 0x28 }
  - { offset: 0x1A2A5, size: 0x8, addend: 0x0, symName: __ZNSt3__13getB8ne180100ILm1EJNS_10unique_ptrINS_15__thread_structENS_14default_deleteIS2_EEEEPFvvEEEERNS_13tuple_elementIXT_ENS_5tupleIJDpT0_EEEE4typeERSC_, symObjAddr: 0x1BDD0, symBinAddr: 0x10001CBA0, symSize: 0x28 }
  - { offset: 0x1B9EE, size: 0x8, addend: 0x0, symName: __ZSt18make_exception_ptrB8ne180100IN5boost4asio19multiple_exceptionsEESt13exception_ptrT_, symObjAddr: 0x115CC, symBinAddr: 0x10001239C, symSize: 0x88 }
  - { offset: 0x1BE1E, size: 0x8, addend: 0x0, symName: _timeOut, symObjAddr: 0x1E370, symBinAddr: 0x100028000, symSize: 0x0 }
  - { offset: 0x1BE99, size: 0x8, addend: 0x0, symName: _serverPort, symObjAddr: 0x1E372, symBinAddr: 0x100028002, symSize: 0x0 }
  - { offset: 0x1BEC1, size: 0x8, addend: 0x0, symName: _receivePort, symObjAddr: 0x1E374, symBinAddr: 0x100028004, symSize: 0x0 }
  - { offset: 0x1BED6, size: 0x8, addend: 0x0, symName: _io, symObjAddr: 0xF5D50, symBinAddr: 0x1000281F0, symSize: 0x0 }
  - { offset: 0x1CB74, size: 0x8, addend: 0x0, symName: __ZN5boost6system6detail17system_cat_holderIvE8instanceE, symObjAddr: 0x1E400, symBinAddr: 0x100028090, symSize: 0x0 }
  - { offset: 0x1CBC3, size: 0x8, addend: 0x0, symName: __ZN5boost6system6detail18interop_cat_holderIvE8instanceE, symObjAddr: 0x1E4E0, symBinAddr: 0x100028170, symSize: 0x0 }
  - { offset: 0x1CBE3, size: 0x8, addend: 0x0, symName: __ZNK5boost6system10error_code8locationEv, symObjAddr: 0x56F8, symBinAddr: 0x1000064C8, symSize: 0x54 }
  - { offset: 0x1CC08, size: 0x8, addend: 0x0, symName: __ZZNK5boost6system10error_code8locationEvE3loc, symObjAddr: 0x200E0, symBinAddr: 0x100025C70, symSize: 0x0 }
  - { offset: 0x1CC20, size: 0x8, addend: 0x0, symName: __ZN5boost4asio6detail14kqueue_reactor3runElRNS1_8op_queueINS1_19scheduler_operationEEE, symObjAddr: 0x79E4, symBinAddr: 0x1000087B4, symSize: 0x4D4 }
  - { offset: 0x1CC48, size: 0x8, addend: 0x0, symName: __ZZN5boost4asio6detail14kqueue_reactor3runElRNS1_8op_queueINS1_19scheduler_operationEEEE6filter, symObjAddr: 0x21344, symBinAddr: 0x1000228CC, symSize: 0x0 }
  - { offset: 0x1CEC7, size: 0x8, addend: 0x0, symName: __ZN5boost4asio9execution6detail17any_executor_base16target_fns_tableINS0_10io_context19basic_executor_typeINSt3__19allocatorIvEELm0EEEEEPKNS3_10target_fnsEbPNS7_9enable_ifIXntsr7is_sameIT_vEE5valueEvE4typeE, symObjAddr: 0x10A9C, symBinAddr: 0x10001186C, symSize: 0x3C }
  - { offset: 0x1CEE8, size: 0x8, addend: 0x0, symName: __ZZN5boost4asio9execution6detail17any_executor_base16target_fns_tableINS0_10io_context19basic_executor_typeINSt3__19allocatorIvEELm0EEEEEPKNS3_10target_fnsEbPNS7_9enable_ifIXntsr7is_sameIT_vEE5valueEvE4typeEE16fns_with_execute, symObjAddr: 0x206D0, symBinAddr: 0x100026260, symSize: 0x0 }
  - { offset: 0x1CEFF, size: 0x8, addend: 0x0, symName: __ZZN5boost4asio9execution6detail17any_executor_base16target_fns_tableINS0_10io_context19basic_executor_typeINSt3__19allocatorIvEELm0EEEEEPKNS3_10target_fnsEbPNS7_9enable_ifIXntsr7is_sameIT_vEE5valueEvE4typeEE25fns_with_blocking_execute, symObjAddr: 0x206F0, symBinAddr: 0x100026280, symSize: 0x0 }
  - { offset: 0x1CF3D, size: 0x8, addend: 0x0, symName: __ZN19boost_asio_query_fn15static_instanceINS_4implEE8instanceE, symObjAddr: 0x2168F, symBinAddr: 0x100022C17, symSize: 0x0 }
  - { offset: 0x1D458, size: 0x8, addend: 0x0, symName: __ZN5boost4asio9execution6detail17any_executor_base16object_fns_tableINS0_10io_context19basic_executor_typeINSt3__19allocatorIvEELm0EEEEEPKNS3_10object_fnsEPNS7_9enable_ifIXaantsr7is_sameIT_vEE5valuentsr7is_sameISF_NS2_22shared_target_executorEEE5valueEvE4typeE, symObjAddr: 0x12F90, symBinAddr: 0x100013D60, symSize: 0x18 }
  - { offset: 0x1D479, size: 0x8, addend: 0x0, symName: __ZZN5boost4asio9execution6detail17any_executor_base16object_fns_tableINS0_10io_context19basic_executor_typeINSt3__19allocatorIvEELm0EEEEEPKNS3_10object_fnsEPNS7_9enable_ifIXaantsr7is_sameIT_vEE5valuentsr7is_sameISF_NS2_22shared_target_executorEEE5valueEvE4typeEE3fns, symObjAddr: 0x20890, symBinAddr: 0x100026420, symSize: 0x0 }
  - { offset: 0x1D5F1, size: 0x8, addend: 0x0, symName: __ZN5boost4asio9execution12any_executorIJNS1_12context_as_tIRNS0_17execution_contextEEENS1_6detail8blocking7never_tILi0EEENS1_11prefer_onlyINS8_10possibly_tILi0EEEEENSB_INS7_16outstanding_work9tracked_tILi0EEEEENSB_INSF_11untracked_tILi0EEEEENSB_INS7_12relationship6fork_tILi0EEEEENSB_INSM_14continuation_tILi0EEEEEEE14prop_fns_tableINS0_10io_context19basic_executor_typeINSt3__19allocatorIvEELm0EEEEEPKNS7_17any_executor_base8prop_fnsIST_EEv, symObjAddr: 0x10A38, symBinAddr: 0x100011808, symSize: 0xC }
  - { offset: 0x1D612, size: 0x8, addend: 0x0, symName: __ZZN5boost4asio9execution12any_executorIJNS1_12context_as_tIRNS0_17execution_contextEEENS1_6detail8blocking7never_tILi0EEENS1_11prefer_onlyINS8_10possibly_tILi0EEEEENSB_INS7_16outstanding_work9tracked_tILi0EEEEENSB_INSF_11untracked_tILi0EEEEENSB_INS7_12relationship6fork_tILi0EEEEENSB_INSM_14continuation_tILi0EEEEEEE14prop_fns_tableINS0_10io_context19basic_executor_typeINSt3__19allocatorIvEELm0EEEEEPKNS7_17any_executor_base8prop_fnsIST_EEvE3fns, symObjAddr: 0x208B0, symBinAddr: 0x100026440, symSize: 0x0 }
  - { offset: 0x1D63A, size: 0x8, addend: 0x0, symName: __ZN5boost4asio9execution12any_executorIJNS1_12context_as_tIRNS0_17execution_contextEEENS1_6detail8blocking7never_tILi0EEENS1_11prefer_onlyINS8_10possibly_tILi0EEEEENSB_INS7_16outstanding_work9tracked_tILi0EEEEENSB_INSF_11untracked_tILi0EEEEENSB_INS7_12relationship6fork_tILi0EEEEENSB_INSM_14continuation_tILi0EEEEEEE14prop_fns_tableIvEEPKNS7_17any_executor_base8prop_fnsIST_EEv, symObjAddr: 0x137DC, symBinAddr: 0x1000145AC, symSize: 0xC }
  - { offset: 0x1D65B, size: 0x8, addend: 0x0, symName: __ZZN5boost4asio9execution12any_executorIJNS1_12context_as_tIRNS0_17execution_contextEEENS1_6detail8blocking7never_tILi0EEENS1_11prefer_onlyINS8_10possibly_tILi0EEEEENSB_INS7_16outstanding_work9tracked_tILi0EEEEENSB_INSF_11untracked_tILi0EEEEENSB_INS7_12relationship6fork_tILi0EEEEENSB_INSM_14continuation_tILi0EEEEEEE14prop_fns_tableIvEEPKNS7_17any_executor_base8prop_fnsIST_EEvE3fns, symObjAddr: 0x20958, symBinAddr: 0x1000264E8, symSize: 0x0 }
  - { offset: 0x1D675, size: 0x8, addend: 0x0, symName: __ZN21boost_asio_require_fn15static_instanceINS_4implEE8instanceE, symObjAddr: 0x216F1, symBinAddr: 0x100022C79, symSize: 0x0 }
  - { offset: 0x1D723, size: 0x8, addend: 0x0, symName: __ZN20boost_asio_prefer_fn15static_instanceINS_4implEE8instanceE, symObjAddr: 0x216F2, symBinAddr: 0x100022C7A, symSize: 0x0 }
  - { offset: 0x1DCCE, size: 0x8, addend: 0x0, symName: __ZN5boost4asio9execution11prefer_onlyINS1_6detail16outstanding_work9tracked_tILi0EEEE14static_query_vINS0_10io_context19basic_executor_typeINSt3__19allocatorIvEELm0EEEKNS3_18outstanding_work_tILi0EEEEE, symObjAddr: 0x216F4, symBinAddr: 0x100022C7C, symSize: 0x0 }
  - { offset: 0x1DCFB, size: 0x8, addend: 0x0, symName: __ZN5boost4asio9execution6detail17any_executor_base16target_fns_tableINS0_10io_context19basic_executor_typeINSt3__19allocatorIvEELm4EEEEEPKNS3_10target_fnsEbPNS7_9enable_ifIXntsr7is_sameIT_vEE5valueEvE4typeE, symObjAddr: 0x15658, symBinAddr: 0x100016428, symSize: 0x3C }
  - { offset: 0x1DD1C, size: 0x8, addend: 0x0, symName: __ZZN5boost4asio9execution6detail17any_executor_base16target_fns_tableINS0_10io_context19basic_executor_typeINSt3__19allocatorIvEELm4EEEEEPKNS3_10target_fnsEbPNS7_9enable_ifIXntsr7is_sameIT_vEE5valueEvE4typeEE16fns_with_execute, symObjAddr: 0x20B00, symBinAddr: 0x100026690, symSize: 0x0 }
  - { offset: 0x1DD33, size: 0x8, addend: 0x0, symName: __ZZN5boost4asio9execution6detail17any_executor_base16target_fns_tableINS0_10io_context19basic_executor_typeINSt3__19allocatorIvEELm4EEEEEPKNS3_10target_fnsEbPNS7_9enable_ifIXntsr7is_sameIT_vEE5valueEvE4typeEE25fns_with_blocking_execute, symObjAddr: 0x20B20, symBinAddr: 0x1000266B0, symSize: 0x0 }
  - { offset: 0x1DD67, size: 0x8, addend: 0x0, symName: __ZN5boost4asio9execution6detail17any_executor_base16object_fns_tableINS0_10io_context19basic_executor_typeINSt3__19allocatorIvEELm4EEEEEPKNS3_10object_fnsEPNS7_9enable_ifIXaantsr7is_sameIT_vEE5valuentsr7is_sameISF_NS2_22shared_target_executorEEE5valueEvE4typeE, symObjAddr: 0x15D44, symBinAddr: 0x100016B14, symSize: 0x18 }
  - { offset: 0x1DD88, size: 0x8, addend: 0x0, symName: __ZZN5boost4asio9execution6detail17any_executor_base16object_fns_tableINS0_10io_context19basic_executor_typeINSt3__19allocatorIvEELm4EEEEEPKNS3_10object_fnsEPNS7_9enable_ifIXaantsr7is_sameIT_vEE5valuentsr7is_sameISF_NS2_22shared_target_executorEEE5valueEvE4typeEE3fns, symObjAddr: 0x20B78, symBinAddr: 0x100026708, symSize: 0x0 }
  - { offset: 0x1DDA7, size: 0x8, addend: 0x0, symName: __ZN5boost4asio9execution12any_executorIJNS1_12context_as_tIRNS0_17execution_contextEEENS1_6detail8blocking7never_tILi0EEENS1_11prefer_onlyINS8_10possibly_tILi0EEEEENSB_INS7_16outstanding_work9tracked_tILi0EEEEENSB_INSF_11untracked_tILi0EEEEENSB_INS7_12relationship6fork_tILi0EEEEENSB_INSM_14continuation_tILi0EEEEEEE14prop_fns_tableINS0_10io_context19basic_executor_typeINSt3__19allocatorIvEELm4EEEEEPKNS7_17any_executor_base8prop_fnsIST_EEv, symObjAddr: 0x15620, symBinAddr: 0x1000163F0, symSize: 0xC }
  - { offset: 0x1DDC8, size: 0x8, addend: 0x0, symName: __ZZN5boost4asio9execution12any_executorIJNS1_12context_as_tIRNS0_17execution_contextEEENS1_6detail8blocking7never_tILi0EEENS1_11prefer_onlyINS8_10possibly_tILi0EEEEENSB_INS7_16outstanding_work9tracked_tILi0EEEEENSB_INSF_11untracked_tILi0EEEEENSB_INS7_12relationship6fork_tILi0EEEEENSB_INSM_14continuation_tILi0EEEEEEE14prop_fns_tableINS0_10io_context19basic_executor_typeINSt3__19allocatorIvEELm4EEEEEPKNS7_17any_executor_base8prop_fnsIST_EEvE3fns, symObjAddr: 0x20B98, symBinAddr: 0x100026728, symSize: 0x0 }
  - { offset: 0x1DDE2, size: 0x8, addend: 0x0, symName: __ZN5boost4asio9execution11prefer_onlyINS1_6detail16outstanding_work9tracked_tILi0EEEE14static_query_vINS0_10io_context19basic_executor_typeINSt3__19allocatorIvEELm4EEEKNS3_18outstanding_work_tILi0EEEEE, symObjAddr: 0x21744, symBinAddr: 0x100022CCC, symSize: 0x0 }
  - { offset: 0x1DE09, size: 0x8, addend: 0x0, symName: __ZN5boost4asio9execution11prefer_onlyINS1_6detail16outstanding_work11untracked_tILi0EEEE14static_query_vINS0_10io_context19basic_executor_typeINSt3__19allocatorIvEELm4EEEKNS3_18outstanding_work_tILi0EEEEE, symObjAddr: 0x21748, symBinAddr: 0x100022CD0, symSize: 0x0 }
  - { offset: 0x1DE36, size: 0x8, addend: 0x0, symName: __ZN5boost4asio9execution11prefer_onlyINS1_6detail16outstanding_work11untracked_tILi0EEEE14static_query_vINS0_10io_context19basic_executor_typeINSt3__19allocatorIvEELm0EEEKNS3_18outstanding_work_tILi0EEEEE, symObjAddr: 0x21754, symBinAddr: 0x100022CDC, symSize: 0x0 }
  - { offset: 0x1DE57, size: 0x8, addend: 0x0, symName: __ZN5boost4asio6detail23reactive_socket_serviceINS0_2ip3udpEE4openERNS5_19implementation_typeERKS4_RNS_6system10error_codeE, symObjAddr: 0xFEA0, symBinAddr: 0x100010C70, symSize: 0xDC }
  - { offset: 0x1DE7A, size: 0x8, addend: 0x0, symName: __ZZN5boost4asio6detail23reactive_socket_serviceINS0_2ip3udpEE4openERNS5_19implementation_typeERKS4_RNS_6system10error_codeEE3loc, symObjAddr: 0x20C40, symBinAddr: 0x1000267D0, symSize: 0x0 }
  - { offset: 0x1DEBC, size: 0x8, addend: 0x0, symName: __ZN5boost4asio6detail23reactive_socket_serviceINS0_2ip3udpEE4bindERNS5_19implementation_typeERKNS3_14basic_endpointIS4_EERNS_6system10error_codeE, symObjAddr: 0xFF94, symBinAddr: 0x100010D64, symSize: 0x94 }
  - { offset: 0x1DEDF, size: 0x8, addend: 0x0, symName: __ZZN5boost4asio6detail23reactive_socket_serviceINS0_2ip3udpEE4bindERNS5_19implementation_typeERKNS3_14basic_endpointIS4_EERNS_6system10error_codeEE3loc, symObjAddr: 0x20C58, symBinAddr: 0x1000267E8, symSize: 0x0 }
  - { offset: 0x1DF27, size: 0x8, addend: 0x0, symName: __ZN5boost4asio6detail23reactive_socket_serviceINS0_2ip3udpEE7send_toINS0_14mutable_bufferEEEmRNS5_19implementation_typeERKT_RKNS3_14basic_endpointIS4_EEiRNS_6system10error_codeE, symObjAddr: 0x1AEBC, symBinAddr: 0x10001BC8C, symSize: 0xEC }
  - { offset: 0x1DF4C, size: 0x8, addend: 0x0, symName: __ZZN5boost4asio6detail23reactive_socket_serviceINS0_2ip3udpEE7send_toINS0_14mutable_bufferEEEmRNS5_19implementation_typeERKT_RKNS3_14basic_endpointIS4_EEiRNS_6system10error_codeEE3loc, symObjAddr: 0x20D88, symBinAddr: 0x100026918, symSize: 0x0 }
  - { offset: 0x1DFC1, size: 0x8, addend: 0x0, symName: __ZN5boost4asio6detail23reactive_socket_serviceINS0_2ip3udpEE12receive_fromINS0_14mutable_bufferEEEmRNS5_19implementation_typeERKT_RNS3_14basic_endpointIS4_EEiRNS_6system10error_codeE, symObjAddr: 0x1C18C, symBinAddr: 0x10001CF5C, symSize: 0x114 }
  - { offset: 0x1DFE6, size: 0x8, addend: 0x0, symName: __ZZN5boost4asio6detail23reactive_socket_serviceINS0_2ip3udpEE12receive_fromINS0_14mutable_bufferEEEmRNS5_19implementation_typeERKT_RNS3_14basic_endpointIS4_EEiRNS_6system10error_codeEE3loc, symObjAddr: 0x20DB8, symBinAddr: 0x100026948, symSize: 0x0 }
  - { offset: 0x1E070, size: 0x8, addend: 0x0, symName: __ZNK5boost4asio6detail23reactive_socket_serviceINS0_2ip3udpEE14local_endpointERKNS5_19implementation_typeERNS_6system10error_codeE, symObjAddr: 0x1C7FC, symBinAddr: 0x10001D5CC, symSize: 0xD0 }
  - { offset: 0x1E093, size: 0x8, addend: 0x0, symName: __ZZNK5boost4asio6detail23reactive_socket_serviceINS0_2ip3udpEE14local_endpointERKNS5_19implementation_typeERNS_6system10error_codeEE3loc, symObjAddr: 0x20E00, symBinAddr: 0x100026990, symSize: 0x0 }
  - { offset: 0x1E101, size: 0x8, addend: 0x0, symName: __ZN5boost4asio6detail23reactive_socket_serviceINS0_2ip3udpEE7send_toINS0_12const_bufferEEEmRNS5_19implementation_typeERKT_RKNS3_14basic_endpointIS4_EEiRNS_6system10error_codeE, symObjAddr: 0x1CD40, symBinAddr: 0x10001DB10, symSize: 0xEC }
  - { offset: 0x1E126, size: 0x8, addend: 0x0, symName: __ZZN5boost4asio6detail23reactive_socket_serviceINS0_2ip3udpEE7send_toINS0_12const_bufferEEEmRNS5_19implementation_typeERKT_RKNS3_14basic_endpointIS4_EEiRNS_6system10error_codeEE3loc, symObjAddr: 0x20E30, symBinAddr: 0x1000269C0, symSize: 0x0 }
  - { offset: 0x1E6E7, size: 0x8, addend: 0x0, symName: __ZNKSt3__16chrono15__duration_castINS0_8durationIxNS_5ratioILl1ELl1EEEEENS2_IxNS3_ILl1ELl1000000000EEEEENS3_ILl1000000000ELl1EEELb0ELb1EEclB8ne180100ERKS5_, symObjAddr: 0x1A078, symBinAddr: 0x10001AE48, symSize: 0x48 }
  - { offset: 0x1EA63, size: 0x8, addend: 0x0, symName: __ZN5boost4asio10io_contextC1Ev, symObjAddr: 0x38, symBinAddr: 0x100000E08, symSize: 0x2C }
  - { offset: 0x1EA8F, size: 0x8, addend: 0x0, symName: __ZN5boost4asio10io_contextD1Ev, symObjAddr: 0x64, symBinAddr: 0x100000E34, symSize: 0x2C }
  - { offset: 0x1EABA, size: 0x8, addend: 0x0, symName: __Z12findOpenPortt, symObjAddr: 0x90, symBinAddr: 0x100000E60, symSize: 0x168 }
  - { offset: 0x1EB0A, size: 0x8, addend: 0x0, symName: __ZN5boost4asio2ip3udp2v4Ev, symObjAddr: 0x1F8, symBinAddr: 0x100000FC8, symSize: 0x28 }
  - { offset: 0x1EB1E, size: 0x8, addend: 0x0, symName: __ZN5boost4asio2ip14basic_endpointINS1_3udpEEC1ERKS3_t, symObjAddr: 0x220, symBinAddr: 0x100000FF0, symSize: 0x3C }
  - { offset: 0x1EC90, size: 0x8, addend: 0x0, symName: __ZN5boost4asio21basic_datagram_socketINS0_2ip3udpENS0_15any_io_executorEEC1INS0_10io_contextEEERT_RKNS2_14basic_endpointIS3_EENS0_10constraintIXsr14is_convertibleIS9_RNS0_17execution_contextEEE5valueEiE4typeE, symObjAddr: 0x25C, symBinAddr: 0x10000102C, symSize: 0x44 }
  - { offset: 0x1ECE9, size: 0x8, addend: 0x0, symName: __ZN5boost4asio21basic_datagram_socketINS0_2ip3udpENS0_15any_io_executorEED1Ev, symObjAddr: 0x2A0, symBinAddr: 0x100001070, symSize: 0x2C }
  - { offset: 0x1ED13, size: 0x8, addend: 0x0, symName: __ZNSt3__113basic_ostreamIcNS_11char_traitsIcEEElsB8ne180100EPFRS3_S4_E, symObjAddr: 0x314, symBinAddr: 0x1000010E4, symSize: 0x2C }
  - { offset: 0x1ED46, size: 0x8, addend: 0x0, symName: __Z6exeCMDNSt3__112basic_stringIcNS_11char_traitsIcEENS_9allocatorIcEEEE, symObjAddr: 0x3A8, symBinAddr: 0x100001178, symSize: 0x54 }
  - { offset: 0x1ED7A, size: 0x8, addend: 0x0, symName: __ZNSt3__16chrono8durationIxNS_5ratioILl1ELl1EEEEC1B8ne180100IiLi0EEERKT_, symObjAddr: 0x50C, symBinAddr: 0x1000012DC, symSize: 0x34 }
  - { offset: 0x1EDC8, size: 0x8, addend: 0x0, symName: __ZNSt3__112basic_stringIcNS_11char_traitsIcEENS_9allocatorIcEEEC1B8ne180100ILi0EEEPKc, symObjAddr: 0x540, symBinAddr: 0x100001310, symSize: 0x34 }
  - { offset: 0x1EE07, size: 0x8, addend: 0x0, symName: __Z11TimOutTimerv, symObjAddr: 0x574, symBinAddr: 0x100001344, symSize: 0x7C }
  - { offset: 0x1EE21, size: 0x8, addend: 0x0, symName: __ZNKSt3__113__atomic_baseIbLb0EE4loadB8ne180100ENS_12memory_orderE, symObjAddr: 0x5F0, symBinAddr: 0x1000013C0, symSize: 0x30 }
  - { offset: 0x1EE55, size: 0x8, addend: 0x0, symName: _main, symObjAddr: 0x620, symBinAddr: 0x1000013F0, symSize: 0x570 }
  - { offset: 0x1EF0C, size: 0x8, addend: 0x0, symName: __ZN5boost4asio2ip14basic_endpointINS1_3udpEEC1ERKNS1_7addressEt, symObjAddr: 0xBF8, symBinAddr: 0x1000019C8, symSize: 0x3C }
  - { offset: 0x1EF52, size: 0x8, addend: 0x0, symName: __ZN5boost4asio21basic_datagram_socketINS0_2ip3udpENS0_15any_io_executorEE7send_toINS0_14mutable_bufferEEEmRKT_RKNS2_14basic_endpointIS3_EE, symObjAddr: 0xC34, symBinAddr: 0x100001A04, symSize: 0xA4 }
  - { offset: 0x1EFED, size: 0x8, addend: 0x0, symName: __ZNSt3__16threadC1IRFvvEJEvEEOT_DpOT0_, symObjAddr: 0xD54, symBinAddr: 0x100001B24, symSize: 0x34 }
  - { offset: 0x1F03C, size: 0x8, addend: 0x0, symName: __ZN5boost4asio21basic_datagram_socketINS0_2ip3udpENS0_15any_io_executorEE12receive_fromINS0_14mutable_bufferEEEmRKT_RNS2_14basic_endpointIS3_EE, symObjAddr: 0xD88, symBinAddr: 0x100001B58, symSize: 0xA4 }
  - { offset: 0x1F0A7, size: 0x8, addend: 0x0, symName: __ZNK5boost4asio12basic_socketINS0_2ip3udpENS0_15any_io_executorEE14local_endpointEv, symObjAddr: 0xEF4, symBinAddr: 0x100001CC4, symSize: 0x94 }
  - { offset: 0x1F0EC, size: 0x8, addend: 0x0, symName: __ZNK5boost4asio2ip14basic_endpointINS1_3udpEE7addressEv, symObjAddr: 0xF88, symBinAddr: 0x100001D58, symSize: 0x2C }
  - { offset: 0x1F112, size: 0x8, addend: 0x0, symName: __ZNK5boost4asio2ip14basic_endpointINS1_3udpEE4portEv, symObjAddr: 0xFB4, symBinAddr: 0x100001D84, symSize: 0x28 }
  - { offset: 0x1F138, size: 0x8, addend: 0x0, symName: __ZNSt3__113__atomic_baseIbLb0EE5storeB8ne180100EbNS_12memory_orderE, symObjAddr: 0xFDC, symBinAddr: 0x100001DAC, symSize: 0x40 }
  - { offset: 0x1F1BF, size: 0x8, addend: 0x0, symName: __ZNSt3__15arrayIcLm1024EEixB8ne180100Em, symObjAddr: 0x101C, symBinAddr: 0x100001DEC, symSize: 0x20 }
  - { offset: 0x1F1F3, size: 0x8, addend: 0x0, symName: __ZN5boost4asio21basic_datagram_socketINS0_2ip3udpENS0_15any_io_executorEE7send_toINS0_12const_bufferEEEmRKT_RKNS2_14basic_endpointIS3_EE, symObjAddr: 0x103C, symBinAddr: 0x100001E0C, symSize: 0xA4 }
  - { offset: 0x1F25E, size: 0x8, addend: 0x0, symName: __ZNSt3__15arrayIcLm1024EE4dataB8ne180100Ev, symObjAddr: 0x1164, symBinAddr: 0x100001F34, symSize: 0x14 }
  - { offset: 0x1F284, size: 0x8, addend: 0x0, symName: __ZNSt3__117basic_string_viewIcNS_11char_traitsIcEEEC1B8ne180100EPKcm, symObjAddr: 0x1178, symBinAddr: 0x100001F48, symSize: 0x3C }
  - { offset: 0x1F2CC, size: 0x8, addend: 0x0, symName: __ZNSt3__112basic_stringIcNS_11char_traitsIcEENS_9allocatorIcEEEC1INS_17basic_string_viewIcS2_EELi0EEERKT_, symObjAddr: 0x128C, symBinAddr: 0x10000205C, symSize: 0x34 }
  - { offset: 0x1F315, size: 0x8, addend: 0x0, symName: __ZN5boost4asio6detail7tss_ptrINS1_10call_stackINS1_14thread_contextENS1_16thread_info_baseEE7contextEEC1Ev, symObjAddr: 0x12C0, symBinAddr: 0x100002090, symSize: 0x2C }
  - { offset: 0x1F341, size: 0x8, addend: 0x0, symName: __ZN5boost4asio6detail7tss_ptrINS1_10call_stackINS1_14thread_contextENS1_16thread_info_baseEE7contextEED1Ev, symObjAddr: 0x12EC, symBinAddr: 0x1000020BC, symSize: 0x2C }
  - { offset: 0x1F373, size: 0x8, addend: 0x0, symName: __ZN5boost4asio6detail10service_idINS0_14config_serviceEEC1Ev, symObjAddr: 0x1318, symBinAddr: 0x1000020E8, symSize: 0x2C }
  - { offset: 0x1F3A0, size: 0x8, addend: 0x0, symName: __ZN5boost4asio6detail10service_idINS0_14config_serviceEED1Ev, symObjAddr: 0x1344, symBinAddr: 0x100002114, symSize: 0x2C }
  - { offset: 0x1F3D3, size: 0x8, addend: 0x0, symName: __ZN5boost4asio6detail10service_idINS1_9schedulerEEC1Ev, symObjAddr: 0x1370, symBinAddr: 0x100002140, symSize: 0x2C }
  - { offset: 0x1F400, size: 0x8, addend: 0x0, symName: __ZN5boost4asio6detail10service_idINS1_9schedulerEED1Ev, symObjAddr: 0x139C, symBinAddr: 0x10000216C, symSize: 0x2C }
  - { offset: 0x1F433, size: 0x8, addend: 0x0, symName: __ZN5boost4asio6detail10service_idINS1_14kqueue_reactorEEC1Ev, symObjAddr: 0x13C8, symBinAddr: 0x100002198, symSize: 0x2C }
  - { offset: 0x1F460, size: 0x8, addend: 0x0, symName: __ZN5boost4asio6detail10service_idINS1_14kqueue_reactorEED1Ev, symObjAddr: 0x13F4, symBinAddr: 0x1000021C4, symSize: 0x2C }
  - { offset: 0x1F48D, size: 0x8, addend: 0x0, symName: __ZN5boost4asio6detail7tss_ptrINS1_10call_stackINS1_14strand_service11strand_implEhE7contextEEC1Ev, symObjAddr: 0x1420, symBinAddr: 0x1000021F0, symSize: 0x2C }
  - { offset: 0x1F4B9, size: 0x8, addend: 0x0, symName: __ZN5boost4asio6detail7tss_ptrINS1_10call_stackINS1_14strand_service11strand_implEhE7contextEED1Ev, symObjAddr: 0x144C, symBinAddr: 0x10000221C, symSize: 0x2C }
  - { offset: 0x1F4EB, size: 0x8, addend: 0x0, symName: __ZN5boost4asio6detail10service_idINS1_14strand_serviceEEC1Ev, symObjAddr: 0x1478, symBinAddr: 0x100002248, symSize: 0x2C }
  - { offset: 0x1F518, size: 0x8, addend: 0x0, symName: __ZN5boost4asio6detail10service_idINS1_14strand_serviceEED1Ev, symObjAddr: 0x14A4, symBinAddr: 0x100002274, symSize: 0x2C }
  - { offset: 0x1F545, size: 0x8, addend: 0x0, symName: __ZN5boost4asio6detail7tss_ptrINS1_10call_stackINS1_23strand_executor_service11strand_implEhE7contextEEC1Ev, symObjAddr: 0x14D0, symBinAddr: 0x1000022A0, symSize: 0x2C }
  - { offset: 0x1F571, size: 0x8, addend: 0x0, symName: __ZN5boost4asio6detail7tss_ptrINS1_10call_stackINS1_23strand_executor_service11strand_implEhE7contextEED1Ev, symObjAddr: 0x14FC, symBinAddr: 0x1000022CC, symSize: 0x2C }
  - { offset: 0x1F59D, size: 0x8, addend: 0x0, symName: __ZN5boost4asio6detail17posix_global_implINS0_14system_contextEED1Ev, symObjAddr: 0x1528, symBinAddr: 0x1000022F8, symSize: 0x2C }
  - { offset: 0x1F5CD, size: 0x8, addend: 0x0, symName: __ZN5boost4asio6detail10service_idINS1_23reactive_socket_serviceINS0_2ip3udpEEEEC1Ev, symObjAddr: 0x1554, symBinAddr: 0x100002324, symSize: 0x2C }
  - { offset: 0x1F5FA, size: 0x8, addend: 0x0, symName: __ZN5boost4asio6detail10service_idINS1_23reactive_socket_serviceINS0_2ip3udpEEEED1Ev, symObjAddr: 0x1580, symBinAddr: 0x100002350, symSize: 0x2C }
  - { offset: 0x1F627, size: 0x8, addend: 0x0, symName: __ZNK5boost6system6detail21system_error_category4nameEv, symObjAddr: 0x15B8, symBinAddr: 0x100002388, symSize: 0x18 }
  - { offset: 0x1F64D, size: 0x8, addend: 0x0, symName: __ZNK5boost6system6detail21system_error_category23default_error_conditionEi, symObjAddr: 0x15D0, symBinAddr: 0x1000023A0, symSize: 0x4C }
  - { offset: 0x1F683, size: 0x8, addend: 0x0, symName: __ZNK5boost6system14error_category10equivalentEiRKNS0_15error_conditionE, symObjAddr: 0x161C, symBinAddr: 0x1000023EC, symSize: 0x54 }
  - { offset: 0x1F6C7, size: 0x8, addend: 0x0, symName: __ZNK5boost6system14error_category10equivalentERKNS0_10error_codeEi, symObjAddr: 0x1670, symBinAddr: 0x100002440, symSize: 0x38 }
  - { offset: 0x1F70B, size: 0x8, addend: 0x0, symName: __ZNK5boost6system6detail21system_error_category7messageEi, symObjAddr: 0x16A8, symBinAddr: 0x100002478, symSize: 0x30 }
  - { offset: 0x1F741, size: 0x8, addend: 0x0, symName: __ZNK5boost6system6detail21system_error_category7messageEiPcm, symObjAddr: 0x16D8, symBinAddr: 0x1000024A8, symSize: 0x38 }
  - { offset: 0x1F793, size: 0x8, addend: 0x0, symName: __ZNK5boost6system14error_category6failedEi, symObjAddr: 0x1710, symBinAddr: 0x1000024E0, symSize: 0x24 }
  - { offset: 0x1F7C7, size: 0x8, addend: 0x0, symName: __ZN5boost6system6detail17generic_value_tagC1Ei, symObjAddr: 0x1734, symBinAddr: 0x100002504, symSize: 0x34 }
  - { offset: 0x1F7FF, size: 0x8, addend: 0x0, symName: __ZN5boost6system15error_conditionC1ENS0_6detail17generic_value_tagE, symObjAddr: 0x1768, symBinAddr: 0x100002538, symSize: 0x3C }
  - { offset: 0x1F837, size: 0x8, addend: 0x0, symName: __ZN5boost6system6detail17generic_value_tagC2Ei, symObjAddr: 0x17A4, symBinAddr: 0x100002574, symSize: 0x20 }
  - { offset: 0x1F86F, size: 0x8, addend: 0x0, symName: __ZN5boost6system15error_conditionC2ENS0_6detail17generic_value_tagE, symObjAddr: 0x17C4, symBinAddr: 0x100002594, symSize: 0x28 }
  - { offset: 0x1F8A7, size: 0x8, addend: 0x0, symName: __ZNK5boost6system15error_condition6cat_idEv, symObjAddr: 0x18F8, symBinAddr: 0x1000026C8, symSize: 0x5C }
  - { offset: 0x1F8CD, size: 0x8, addend: 0x0, symName: __ZNK5boost6system10error_code6equalsEiRKNS0_14error_categoryE, symObjAddr: 0x19C0, symBinAddr: 0x100002790, symSize: 0x170 }
  - { offset: 0x1F911, size: 0x8, addend: 0x0, symName: __ZNK5boost6system10error_code5valueEv, symObjAddr: 0x1B30, symBinAddr: 0x100002900, symSize: 0x9C }
  - { offset: 0x1F96F, size: 0x8, addend: 0x0, symName: __ZNKSt3__110error_code5valueB8ne180100Ev, symObjAddr: 0x1BCC, symBinAddr: 0x10000299C, symSize: 0x18 }
  - { offset: 0x1F995, size: 0x8, addend: 0x0, symName: __ZNKSt3__110error_code8categoryB8ne180100Ev, symObjAddr: 0x1BE4, symBinAddr: 0x1000029B4, symSize: 0x18 }
  - { offset: 0x1F9BB, size: 0x8, addend: 0x0, symName: __ZNK5boost4asio5error6detail14netdb_category4nameEv, symObjAddr: 0x1DB0, symBinAddr: 0x100002B80, symSize: 0x18 }
  - { offset: 0x1F9E1, size: 0x8, addend: 0x0, symName: __ZNK5boost6system14error_category23default_error_conditionEi, symObjAddr: 0x1DC8, symBinAddr: 0x100002B98, symSize: 0x38 }
  - { offset: 0x1FA17, size: 0x8, addend: 0x0, symName: __ZNK5boost4asio5error6detail14netdb_category7messageEi, symObjAddr: 0x1E00, symBinAddr: 0x100002BD0, symSize: 0xDC }
  - { offset: 0x1FA4B, size: 0x8, addend: 0x0, symName: __ZNK5boost6system14error_category7messageEiPcm, symObjAddr: 0x1EDC, symBinAddr: 0x100002CAC, symSize: 0x158 }
  - { offset: 0x1FA9D, size: 0x8, addend: 0x0, symName: __ZN5boost6system15error_conditionC1EiRKNS0_14error_categoryE, symObjAddr: 0x2034, symBinAddr: 0x100002E04, symSize: 0x3C }
  - { offset: 0x1FAE3, size: 0x8, addend: 0x0, symName: __ZN5boost6system15error_conditionC2EiRKNS0_14error_categoryE, symObjAddr: 0x2070, symBinAddr: 0x100002E40, symSize: 0x2C }
  - { offset: 0x1FB29, size: 0x8, addend: 0x0, symName: __ZNKSt3__112basic_stringIcNS_11char_traitsIcEENS_9allocatorIcEEE5c_strB8ne180100Ev, symObjAddr: 0x209C, symBinAddr: 0x100002E6C, symSize: 0x24 }
  - { offset: 0x1FB4F, size: 0x8, addend: 0x0, symName: __ZNKSt3__112basic_stringIcNS_11char_traitsIcEENS_9allocatorIcEEE4dataB8ne180100Ev, symObjAddr: 0x20C0, symBinAddr: 0x100002E90, symSize: 0x28 }
  - { offset: 0x1FB75, size: 0x8, addend: 0x0, symName: __ZNKSt3__112basic_stringIcNS_11char_traitsIcEENS_9allocatorIcEEE13__get_pointerB8ne180100Ev, symObjAddr: 0x20FC, symBinAddr: 0x100002ECC, symSize: 0x54 }
  - { offset: 0x1FB9B, size: 0x8, addend: 0x0, symName: __ZNKSt3__112basic_stringIcNS_11char_traitsIcEENS_9allocatorIcEEE9__is_longB8ne180100Ev, symObjAddr: 0x2150, symBinAddr: 0x100002F20, symSize: 0x38 }
  - { offset: 0x1FBC1, size: 0x8, addend: 0x0, symName: __ZNKSt3__112basic_stringIcNS_11char_traitsIcEENS_9allocatorIcEEE18__get_long_pointerB8ne180100Ev, symObjAddr: 0x2188, symBinAddr: 0x100002F58, symSize: 0x28 }
  - { offset: 0x1FBE7, size: 0x8, addend: 0x0, symName: __ZNKSt3__112basic_stringIcNS_11char_traitsIcEENS_9allocatorIcEEE19__get_short_pointerB8ne180100Ev, symObjAddr: 0x21B0, symBinAddr: 0x100002F80, symSize: 0x28 }
  - { offset: 0x1FC0D, size: 0x8, addend: 0x0, symName: __ZNKSt3__117__compressed_pairINS_12basic_stringIcNS_11char_traitsIcEENS_9allocatorIcEEE5__repES5_E5firstB8ne180100Ev, symObjAddr: 0x21D8, symBinAddr: 0x100002FA8, symSize: 0x24 }
  - { offset: 0x1FC33, size: 0x8, addend: 0x0, symName: __ZNKSt3__122__compressed_pair_elemINS_12basic_stringIcNS_11char_traitsIcEENS_9allocatorIcEEE5__repELi0ELb0EE5__getB8ne180100Ev, symObjAddr: 0x21FC, symBinAddr: 0x100002FCC, symSize: 0x14 }
  - { offset: 0x1FC59, size: 0x8, addend: 0x0, symName: __ZNSt3__114pointer_traitsIPKcE10pointer_toB8ne180100ERS1_, symObjAddr: 0x2210, symBinAddr: 0x100002FE0, symSize: 0x14 }
  - { offset: 0x1FC7C, size: 0x8, addend: 0x0, symName: __ZNK5boost4asio5error6detail17addrinfo_category4nameEv, symObjAddr: 0x2224, symBinAddr: 0x100002FF4, symSize: 0x18 }
  - { offset: 0x1FCA2, size: 0x8, addend: 0x0, symName: __ZNK5boost4asio5error6detail17addrinfo_category7messageEi, symObjAddr: 0x223C, symBinAddr: 0x10000300C, symSize: 0x8C }
  - { offset: 0x1FCD6, size: 0x8, addend: 0x0, symName: __ZNK5boost4asio5error6detail13misc_category4nameEv, symObjAddr: 0x22C8, symBinAddr: 0x100003098, symSize: 0x18 }
  - { offset: 0x1FCFC, size: 0x8, addend: 0x0, symName: __ZNK5boost4asio5error6detail13misc_category7messageEi, symObjAddr: 0x22E0, symBinAddr: 0x1000030B0, symSize: 0xDC }
  - { offset: 0x1FD30, size: 0x8, addend: 0x0, symName: __ZN5boost4asio10io_contextC2Ev, symObjAddr: 0x23BC, symBinAddr: 0x10000318C, symSize: 0xF0 }
  - { offset: 0x1FD6E, size: 0x8, addend: 0x0, symName: __ZN5boost4asio28config_from_concurrency_hintC1Ev, symObjAddr: 0x24AC, symBinAddr: 0x10000327C, symSize: 0x2C }
  - { offset: 0x1FD9A, size: 0x8, addend: 0x0, symName: __ZN5boost4asio17execution_contextC2ERKNS1_13service_makerE, symObjAddr: 0x24D8, symBinAddr: 0x1000032A8, symSize: 0xB0 }
  - { offset: 0x1FDD4, size: 0x8, addend: 0x0, symName: __ZN5boost4asio28config_from_concurrency_hintD1Ev, symObjAddr: 0x2588, symBinAddr: 0x100003358, symSize: 0x2C }
  - { offset: 0x1FE00, size: 0x8, addend: 0x0, symName: __ZN5boost4asio10io_context8add_implEPNS0_6detail9schedulerE, symObjAddr: 0x25B4, symBinAddr: 0x100003384, symSize: 0x94 }
  - { offset: 0x1FE44, size: 0x8, addend: 0x0, symName: __ZN5boost4asio6detail9scheduler16get_default_taskERNS0_17execution_contextE, symObjAddr: 0x2648, symBinAddr: 0x100003418, symSize: 0x54 }
  - { offset: 0x1FE6B, size: 0x8, addend: 0x0, symName: __ZN5boost4asio6detail9schedulerC1ERNS0_17execution_contextEbPFPNS1_14scheduler_taskES4_E, symObjAddr: 0x269C, symBinAddr: 0x10000346C, symSize: 0x50 }
  - { offset: 0x1FEC1, size: 0x8, addend: 0x0, symName: __ZN5boost4asio17execution_contextD2Ev, symObjAddr: 0x26EC, symBinAddr: 0x1000034BC, symSize: 0x80 }
  - { offset: 0x1FEED, size: 0x8, addend: 0x0, symName: __ZN5boost4asio28config_from_concurrency_hintC2Ev, symObjAddr: 0x276C, symBinAddr: 0x10000353C, symSize: 0x44 }
  - { offset: 0x1FF19, size: 0x8, addend: 0x0, symName: __ZN5boost4asio17execution_context13service_makerC2Ev, symObjAddr: 0x27B0, symBinAddr: 0x100003580, symSize: 0x3C }
  - { offset: 0x1FF46, size: 0x8, addend: 0x0, symName: __ZNK5boost4asio28config_from_concurrency_hint4makeERNS0_17execution_contextE, symObjAddr: 0x27EC, symBinAddr: 0x1000035BC, symSize: 0x74 }
  - { offset: 0x1FF7C, size: 0x8, addend: 0x0, symName: __ZN5boost4asio28config_from_concurrency_hintD0Ev, symObjAddr: 0x2860, symBinAddr: 0x100003630, symSize: 0x30 }
  - { offset: 0x1FFA8, size: 0x8, addend: 0x0, symName: __ZN5boost4asio6detail11noncopyableC2Ev, symObjAddr: 0x2890, symBinAddr: 0x100003660, symSize: 0x14 }
  - { offset: 0x1FFD2, size: 0x8, addend: 0x0, symName: __ZN5boost4asio17execution_context13service_makerD1Ev, symObjAddr: 0x28A4, symBinAddr: 0x100003674, symSize: 0x14 }
  - { offset: 0x1FFFE, size: 0x8, addend: 0x0, symName: __ZN5boost4asio17execution_context13service_makerD0Ev, symObjAddr: 0x28B8, symBinAddr: 0x100003688, symSize: 0xC }
  - { offset: 0x2003C, size: 0x8, addend: 0x0, symName: __ZN5boost4asio6detail36config_from_concurrency_hint_serviceC1ERNS0_17execution_contextEi, symObjAddr: 0x29B4, symBinAddr: 0x100003784, symSize: 0x3C }
  - { offset: 0x200A6, size: 0x8, addend: 0x0, symName: __ZN5boost4asio6detail10scoped_ptrINS1_36config_from_concurrency_hint_serviceEEC1EPS3_, symObjAddr: 0x29F0, symBinAddr: 0x1000037C0, symSize: 0x34 }
  - { offset: 0x200DE, size: 0x8, addend: 0x0, symName: __ZN5boost4asio6detail16service_registry11add_serviceINS1_36config_from_concurrency_hint_serviceEEEvPT_, symObjAddr: 0x2A24, symBinAddr: 0x1000037F4, symSize: 0x54 }
  - { offset: 0x20129, size: 0x8, addend: 0x0, symName: __ZN5boost4asio6detail10scoped_ptrINS1_36config_from_concurrency_hint_serviceEE3getEv, symObjAddr: 0x2A78, symBinAddr: 0x100003848, symSize: 0x18 }
  - { offset: 0x2014F, size: 0x8, addend: 0x0, symName: __ZN5boost4asio6detail10scoped_ptrINS1_36config_from_concurrency_hint_serviceEEdeEv, symObjAddr: 0x2A90, symBinAddr: 0x100003860, symSize: 0x18 }
  - { offset: 0x20175, size: 0x8, addend: 0x0, symName: __ZN5boost4asio6detail10scoped_ptrINS1_36config_from_concurrency_hint_serviceEE7releaseEv, symObjAddr: 0x2AA8, symBinAddr: 0x100003878, symSize: 0x24 }
  - { offset: 0x201A9, size: 0x8, addend: 0x0, symName: __ZN5boost4asio6detail10scoped_ptrINS1_36config_from_concurrency_hint_serviceEED1Ev, symObjAddr: 0x2ACC, symBinAddr: 0x10000389C, symSize: 0x2C }
  - { offset: 0x201D3, size: 0x8, addend: 0x0, symName: __ZN5boost4asio6detail36config_from_concurrency_hint_serviceC2ERNS0_17execution_contextEi, symObjAddr: 0x2AF8, symBinAddr: 0x1000038C8, symSize: 0x50 }
  - { offset: 0x20219, size: 0x8, addend: 0x0, symName: __ZN5boost4asio14config_serviceC2ERNS0_17execution_contextE, symObjAddr: 0x2B48, symBinAddr: 0x100003918, symSize: 0x44 }
  - { offset: 0x20253, size: 0x8, addend: 0x0, symName: __ZN5boost4asio6detail36config_from_concurrency_hint_serviceD1Ev, symObjAddr: 0x2B8C, symBinAddr: 0x10000395C, symSize: 0x2C }
  - { offset: 0x2027F, size: 0x8, addend: 0x0, symName: __ZN5boost4asio6detail36config_from_concurrency_hint_serviceD0Ev, symObjAddr: 0x2BB8, symBinAddr: 0x100003988, symSize: 0x30 }
  - { offset: 0x202AB, size: 0x8, addend: 0x0, symName: __ZN5boost4asio14config_service8shutdownEv, symObjAddr: 0x2BE8, symBinAddr: 0x1000039B8, symSize: 0x10 }
  - { offset: 0x202D3, size: 0x8, addend: 0x0, symName: __ZN5boost4asio17execution_context7service11notify_forkENS1_10fork_eventE, symObjAddr: 0x2BF8, symBinAddr: 0x1000039C8, symSize: 0x14 }
  - { offset: 0x20305, size: 0x8, addend: 0x0, symName: __ZNK5boost4asio6detail36config_from_concurrency_hint_service9get_valueEPKcS4_Pcm, symObjAddr: 0x2C0C, symBinAddr: 0x1000039DC, symSize: 0x290 }
  - { offset: 0x20363, size: 0x8, addend: 0x0, symName: __ZN5boost4asio6detail30execution_context_service_baseINS0_14config_serviceEEC2ERNS0_17execution_contextE, symObjAddr: 0x2E9C, symBinAddr: 0x100003C6C, symSize: 0x44 }
  - { offset: 0x2039C, size: 0x8, addend: 0x0, symName: __ZN5boost4asio14config_serviceD1Ev, symObjAddr: 0x2EE0, symBinAddr: 0x100003CB0, symSize: 0x2C }
  - { offset: 0x203C8, size: 0x8, addend: 0x0, symName: __ZN5boost4asio14config_serviceD0Ev, symObjAddr: 0x2F0C, symBinAddr: 0x100003CDC, symSize: 0x30 }
  - { offset: 0x203F4, size: 0x8, addend: 0x0, symName: __ZNK5boost4asio14config_service9get_valueEPKcS3_Pcm, symObjAddr: 0x2F3C, symBinAddr: 0x100003D0C, symSize: 0x24 }
  - { offset: 0x20444, size: 0x8, addend: 0x0, symName: __ZN5boost4asio17execution_context7serviceC2ERS1_, symObjAddr: 0x2F60, symBinAddr: 0x100003D30, symSize: 0x80 }
  - { offset: 0x2047E, size: 0x8, addend: 0x0, symName: __ZN5boost4asio6detail30execution_context_service_baseINS0_14config_serviceEED1Ev, symObjAddr: 0x2FE0, symBinAddr: 0x100003DB0, symSize: 0x14 }
  - { offset: 0x204AB, size: 0x8, addend: 0x0, symName: __ZN5boost4asio6detail30execution_context_service_baseINS0_14config_serviceEED0Ev, symObjAddr: 0x2FF4, symBinAddr: 0x100003DC4, symSize: 0xC }
  - { offset: 0x204D8, size: 0x8, addend: 0x0, symName: __ZN5boost4asio17execution_context7service3keyC1Ev, symObjAddr: 0x3000, symBinAddr: 0x100003DD0, symSize: 0x2C }
  - { offset: 0x20502, size: 0x8, addend: 0x0, symName: __ZN5boost4asio6detail11noncopyableD2Ev, symObjAddr: 0x302C, symBinAddr: 0x100003DFC, symSize: 0x14 }
  - { offset: 0x2052C, size: 0x8, addend: 0x0, symName: __ZN5boost4asio17execution_context7serviceD1Ev, symObjAddr: 0x3040, symBinAddr: 0x100003E10, symSize: 0x14 }
  - { offset: 0x20558, size: 0x8, addend: 0x0, symName: __ZN5boost4asio17execution_context7serviceD0Ev, symObjAddr: 0x3054, symBinAddr: 0x100003E24, symSize: 0xC }
  - { offset: 0x20584, size: 0x8, addend: 0x0, symName: __ZN5boost4asio17execution_context7service3keyC2Ev, symObjAddr: 0x3060, symBinAddr: 0x100003E30, symSize: 0x1C }
  - { offset: 0x205AE, size: 0x8, addend: 0x0, symName: __ZN5boost4asio14config_serviceD2Ev, symObjAddr: 0x307C, symBinAddr: 0x100003E4C, symSize: 0x2C }
  - { offset: 0x205DA, size: 0x8, addend: 0x0, symName: __ZN5boost4asio6detail30execution_context_service_baseINS0_14config_serviceEED2Ev, symObjAddr: 0x30A8, symBinAddr: 0x100003E78, symSize: 0x2C }
  - { offset: 0x20607, size: 0x8, addend: 0x0, symName: __ZN5boost4asio17execution_context7serviceD2Ev, symObjAddr: 0x30D4, symBinAddr: 0x100003EA4, symSize: 0x2C }
  - { offset: 0x20633, size: 0x8, addend: 0x0, symName: __ZN5boost4asio6detail36config_from_concurrency_hint_serviceD2Ev, symObjAddr: 0x3100, symBinAddr: 0x100003ED0, symSize: 0x2C }
  - { offset: 0x2065F, size: 0x8, addend: 0x0, symName: __ZN5boost4asio6detail10scoped_ptrINS1_36config_from_concurrency_hint_serviceEEC2EPS3_, symObjAddr: 0x312C, symBinAddr: 0x100003EFC, symSize: 0x20 }
  - { offset: 0x20697, size: 0x8, addend: 0x0, symName: __ZN5boost4asio6detail16service_registry8init_keyINS1_36config_from_concurrency_hint_serviceEEEvRNS0_17execution_context7service3keyEz, symObjAddr: 0x314C, symBinAddr: 0x100003F1C, symSize: 0x2C }
  - { offset: 0x206C6, size: 0x8, addend: 0x0, symName: __ZN5boost4asio6detail16service_registry14do_add_serviceERKNS0_17execution_context7service3keyEPS4_, symObjAddr: 0x3178, symBinAddr: 0x100003F48, symSize: 0x174 }
  - { offset: 0x20732, size: 0x8, addend: 0x0, symName: __ZN5boost4asio6detail16service_registry16init_key_from_idINS0_14config_serviceEEEvRNS0_17execution_context7service3keyERKNS1_10service_idIT_EE, symObjAddr: 0x32EC, symBinAddr: 0x1000040BC, symSize: 0x2C }
  - { offset: 0x2076A, size: 0x8, addend: 0x0, symName: __ZN5boost4asio17execution_context7service7contextEv, symObjAddr: 0x3318, symBinAddr: 0x1000040E8, symSize: 0x18 }
  - { offset: 0x20792, size: 0x8, addend: 0x0, symName: __ZN5boost4asio21invalid_service_ownerC1Ev, symObjAddr: 0x339C, symBinAddr: 0x10000416C, symSize: 0x2C }
  - { offset: 0x207BE, size: 0x8, addend: 0x0, symName: __ZN5boost4asio21invalid_service_ownerD1Ev, symObjAddr: 0x33C8, symBinAddr: 0x100004198, symSize: 0x2C }
  - { offset: 0x207EB, size: 0x8, addend: 0x0, symName: __ZN5boost4asio6detail11scoped_lockINS1_11posix_mutexEEC1ERS3_, symObjAddr: 0x33F4, symBinAddr: 0x1000041C4, symSize: 0x34 }
  - { offset: 0x20823, size: 0x8, addend: 0x0, symName: __ZN5boost4asio6detail16service_registry10keys_matchERKNS0_17execution_context7service3keyES7_, symObjAddr: 0x3428, symBinAddr: 0x1000041F8, symSize: 0x108 }
  - { offset: 0x20856, size: 0x8, addend: 0x0, symName: __ZN5boost4asio22service_already_existsC1Ev, symObjAddr: 0x359C, symBinAddr: 0x10000436C, symSize: 0x2C }
  - { offset: 0x20882, size: 0x8, addend: 0x0, symName: __ZN5boost4asio22service_already_existsD1Ev, symObjAddr: 0x35C8, symBinAddr: 0x100004398, symSize: 0x2C }
  - { offset: 0x208AF, size: 0x8, addend: 0x0, symName: __ZN5boost4asio6detail11scoped_lockINS1_11posix_mutexEED1Ev, symObjAddr: 0x35F4, symBinAddr: 0x1000043C4, symSize: 0x2C }
  - { offset: 0x208D9, size: 0x8, addend: 0x0, symName: __ZN5boost10wrapexceptINS_4asio21invalid_service_ownerEEC1ERKS2_, symObjAddr: 0x3630, symBinAddr: 0x100004400, symSize: 0x34 }
  - { offset: 0x20911, size: 0x8, addend: 0x0, symName: __ZN5boost10wrapexceptINS_4asio21invalid_service_ownerEED1Ev, symObjAddr: 0x3664, symBinAddr: 0x100004434, symSize: 0x2C }
  - { offset: 0x2093D, size: 0x8, addend: 0x0, symName: __ZN5boost10wrapexceptINS_4asio21invalid_service_ownerEEC2ERKS2_, symObjAddr: 0x3690, symBinAddr: 0x100004460, symSize: 0xCC }
  - { offset: 0x20975, size: 0x8, addend: 0x0, symName: __ZN5boost16exception_detail10clone_baseC2Ev, symObjAddr: 0x375C, symBinAddr: 0x10000452C, symSize: 0x24 }
  - { offset: 0x209A2, size: 0x8, addend: 0x0, symName: __ZN5boost4asio21invalid_service_ownerC2ERKS1_, symObjAddr: 0x3780, symBinAddr: 0x100004550, symSize: 0x44 }
  - { offset: 0x209D8, size: 0x8, addend: 0x0, symName: __ZN5boost9exceptionC2Ev, symObjAddr: 0x37C4, symBinAddr: 0x100004594, symSize: 0x54 }
  - { offset: 0x20A02, size: 0x8, addend: 0x0, symName: __ZN5boost10wrapexceptINS_4asio21invalid_service_ownerEE9copy_fromEPKv, symObjAddr: 0x3818, symBinAddr: 0x1000045E8, symSize: 0x14 }
  - { offset: 0x20A32, size: 0x8, addend: 0x0, symName: __ZN5boost9exceptionD2Ev, symObjAddr: 0x382C, symBinAddr: 0x1000045FC, symSize: 0x40 }
  - { offset: 0x20A5E, size: 0x8, addend: 0x0, symName: __ZN5boost4asio21invalid_service_ownerD2Ev, symObjAddr: 0x386C, symBinAddr: 0x10000463C, symSize: 0x2C }
  - { offset: 0x20A8B, size: 0x8, addend: 0x0, symName: __ZN5boost16exception_detail10clone_baseD2Ev, symObjAddr: 0x3898, symBinAddr: 0x100004668, symSize: 0x14 }
  - { offset: 0x20AB5, size: 0x8, addend: 0x0, symName: __ZNK5boost10wrapexceptINS_4asio21invalid_service_ownerEE5cloneEv, symObjAddr: 0x38AC, symBinAddr: 0x10000467C, symSize: 0xE4 }
  - { offset: 0x20AF7, size: 0x8, addend: 0x0, symName: __ZNK5boost10wrapexceptINS_4asio21invalid_service_ownerEE7rethrowEv, symObjAddr: 0x3990, symBinAddr: 0x100004760, symSize: 0x6C }
  - { offset: 0x20B1D, size: 0x8, addend: 0x0, symName: __ZN5boost10wrapexceptINS_4asio21invalid_service_ownerEED0Ev, symObjAddr: 0x39FC, symBinAddr: 0x1000047CC, symSize: 0x30 }
  - { offset: 0x20B49, size: 0x8, addend: 0x0, symName: __ZThn8_N5boost10wrapexceptINS_4asio21invalid_service_ownerEED1Ev, symObjAddr: 0x3A2C, symBinAddr: 0x1000047FC, symSize: 0x1C }
  - { offset: 0x20B5F, size: 0x8, addend: 0x0, symName: __ZThn8_N5boost10wrapexceptINS_4asio21invalid_service_ownerEED0Ev, symObjAddr: 0x3A48, symBinAddr: 0x100004818, symSize: 0x18 }
  - { offset: 0x20B75, size: 0x8, addend: 0x0, symName: __ZThn24_N5boost10wrapexceptINS_4asio21invalid_service_ownerEED1Ev, symObjAddr: 0x3A60, symBinAddr: 0x100004830, symSize: 0x1C }
  - { offset: 0x20B8B, size: 0x8, addend: 0x0, symName: __ZThn24_N5boost10wrapexceptINS_4asio21invalid_service_ownerEED0Ev, symObjAddr: 0x3A7C, symBinAddr: 0x10000484C, symSize: 0x18 }
  - { offset: 0x20BA1, size: 0x8, addend: 0x0, symName: __ZN5boost16exception_detail10clone_baseD1Ev, symObjAddr: 0x3A94, symBinAddr: 0x100004864, symSize: 0x14 }
  - { offset: 0x20BCB, size: 0x8, addend: 0x0, symName: __ZN5boost16exception_detail10clone_baseD0Ev, symObjAddr: 0x3AA8, symBinAddr: 0x100004878, symSize: 0xC }
  - { offset: 0x20BF5, size: 0x8, addend: 0x0, symName: __ZN5boost4asio21invalid_service_ownerD0Ev, symObjAddr: 0x3AB4, symBinAddr: 0x100004884, symSize: 0x30 }
  - { offset: 0x20C22, size: 0x8, addend: 0x0, symName: __ZN5boost16exception_detail12refcount_ptrINS0_20error_info_containerEEC1Ev, symObjAddr: 0x3AE4, symBinAddr: 0x1000048B4, symSize: 0x2C }
  - { offset: 0x20C4C, size: 0x8, addend: 0x0, symName: __ZN5boost16exception_detail12refcount_ptrINS0_20error_info_containerEEC2Ev, symObjAddr: 0x3B10, symBinAddr: 0x1000048E0, symSize: 0x18 }
  - { offset: 0x20C76, size: 0x8, addend: 0x0, symName: __ZN5boost16exception_detail12refcount_ptrINS0_20error_info_containerEED1Ev, symObjAddr: 0x3B28, symBinAddr: 0x1000048F8, symSize: 0x2C }
  - { offset: 0x20CA0, size: 0x8, addend: 0x0, symName: __ZN5boost16exception_detail12refcount_ptrINS0_20error_info_containerEED2Ev, symObjAddr: 0x3B54, symBinAddr: 0x100004924, symSize: 0x34 }
  - { offset: 0x20CCA, size: 0x8, addend: 0x0, symName: __ZN5boost16exception_detail12refcount_ptrINS0_20error_info_containerEE7releaseEv, symObjAddr: 0x3B88, symBinAddr: 0x100004958, symSize: 0x60 }
  - { offset: 0x20CF6, size: 0x8, addend: 0x0, symName: __ZN5boost10wrapexceptINS_4asio21invalid_service_ownerEEC1ERKS3_, symObjAddr: 0x3BE8, symBinAddr: 0x1000049B8, symSize: 0x34 }
  - { offset: 0x20D37, size: 0x8, addend: 0x0, symName: __ZN5boost10wrapexceptINS_4asio21invalid_service_ownerEE7deleterD1Ev, symObjAddr: 0x3D40, symBinAddr: 0x100004B10, symSize: 0x2C }
  - { offset: 0x20D61, size: 0x8, addend: 0x0, symName: __ZN5boost10wrapexceptINS_4asio21invalid_service_ownerEEC2ERKS3_, symObjAddr: 0x3D6C, symBinAddr: 0x100004B3C, symSize: 0xAC }
  - { offset: 0x20D9C, size: 0x8, addend: 0x0, symName: __ZN5boost16exception_detail10clone_baseC2ERKS1_, symObjAddr: 0x3E18, symBinAddr: 0x100004BE8, symSize: 0x28 }
  - { offset: 0x20DD8, size: 0x8, addend: 0x0, symName: __ZN5boost9exceptionC2ERKS0_, symObjAddr: 0x3E40, symBinAddr: 0x100004C10, symSize: 0x60 }
  - { offset: 0x20E0D, size: 0x8, addend: 0x0, symName: __ZN5boost16exception_detail12refcount_ptrINS0_20error_info_containerEEC1ERKS3_, symObjAddr: 0x3EA0, symBinAddr: 0x100004C70, symSize: 0x34 }
  - { offset: 0x20E45, size: 0x8, addend: 0x0, symName: __ZN5boost16exception_detail12refcount_ptrINS0_20error_info_containerEEC2ERKS3_, symObjAddr: 0x3ED4, symBinAddr: 0x100004CA4, symSize: 0x3C }
  - { offset: 0x20E7D, size: 0x8, addend: 0x0, symName: __ZN5boost16exception_detail12refcount_ptrINS0_20error_info_containerEE7add_refEv, symObjAddr: 0x3F10, symBinAddr: 0x100004CE0, symSize: 0x50 }
  - { offset: 0x20EA3, size: 0x8, addend: 0x0, symName: __ZNK5boost16exception_detail12refcount_ptrINS0_20error_info_containerEE3getEv, symObjAddr: 0x3F60, symBinAddr: 0x100004D30, symSize: 0x18 }
  - { offset: 0x20EC9, size: 0x8, addend: 0x0, symName: __ZN5boost16exception_detail12refcount_ptrINS0_20error_info_containerEEaSERKS3_, symObjAddr: 0x3F78, symBinAddr: 0x100004D48, symSize: 0x38 }
  - { offset: 0x20EFD, size: 0x8, addend: 0x0, symName: __ZN5boost16exception_detail12refcount_ptrINS0_20error_info_containerEE5adoptEPS2_, symObjAddr: 0x3FB0, symBinAddr: 0x100004D80, symSize: 0x3C }
  - { offset: 0x20F31, size: 0x8, addend: 0x0, symName: __ZN5boost10wrapexceptINS_4asio21invalid_service_ownerEE7deleterD2Ev, symObjAddr: 0x3FEC, symBinAddr: 0x100004DBC, symSize: 0x58 }
  - { offset: 0x20F5B, size: 0x8, addend: 0x0, symName: __ZN5boost10wrapexceptINS_4asio21invalid_service_ownerEED2Ev, symObjAddr: 0x4044, symBinAddr: 0x100004E14, symSize: 0x44 }
  - { offset: 0x20F87, size: 0x8, addend: 0x0, symName: __ZN5boost4asio21invalid_service_ownerC2Ev, symObjAddr: 0x4088, symBinAddr: 0x100004E58, symSize: 0x44 }
  - { offset: 0x20FB3, size: 0x8, addend: 0x0, symName: __ZN5boost4asio6detail11scoped_lockINS1_11posix_mutexEEC2ERS3_, symObjAddr: 0x40CC, symBinAddr: 0x100004E9C, symSize: 0x74 }
  - { offset: 0x20FEB, size: 0x8, addend: 0x0, symName: __ZN5boost4asio6detail11posix_mutex4lockEv, symObjAddr: 0x4140, symBinAddr: 0x100004F10, symSize: 0x24 }
  - { offset: 0x21045, size: 0x8, addend: 0x0, symName: __ZNKSt9type_infoeqB8ne180100ERKS_, symObjAddr: 0x4164, symBinAddr: 0x100004F34, symSize: 0xDC }
  - { offset: 0x210E1, size: 0x8, addend: 0x0, symName: __ZNSt27__type_info_implementations30__non_unique_arm_rtti_bit_impl21__is_type_name_uniqueB8ne180100Em, symObjAddr: 0x4240, symBinAddr: 0x100005010, symSize: 0x20 }
  - { offset: 0x21105, size: 0x8, addend: 0x0, symName: __ZN5boost10wrapexceptINS_4asio22service_already_existsEEC1ERKS2_, symObjAddr: 0x4260, symBinAddr: 0x100005030, symSize: 0x34 }
  - { offset: 0x2113D, size: 0x8, addend: 0x0, symName: __ZN5boost10wrapexceptINS_4asio22service_already_existsEED1Ev, symObjAddr: 0x4294, symBinAddr: 0x100005064, symSize: 0x2C }
  - { offset: 0x21169, size: 0x8, addend: 0x0, symName: __ZN5boost10wrapexceptINS_4asio22service_already_existsEEC2ERKS2_, symObjAddr: 0x42C0, symBinAddr: 0x100005090, symSize: 0xCC }
  - { offset: 0x211A1, size: 0x8, addend: 0x0, symName: __ZN5boost4asio22service_already_existsC2ERKS1_, symObjAddr: 0x438C, symBinAddr: 0x10000515C, symSize: 0x44 }
  - { offset: 0x211D7, size: 0x8, addend: 0x0, symName: __ZN5boost10wrapexceptINS_4asio22service_already_existsEE9copy_fromEPKv, symObjAddr: 0x43D0, symBinAddr: 0x1000051A0, symSize: 0x14 }
  - { offset: 0x21207, size: 0x8, addend: 0x0, symName: __ZN5boost4asio22service_already_existsD2Ev, symObjAddr: 0x43E4, symBinAddr: 0x1000051B4, symSize: 0x2C }
  - { offset: 0x21234, size: 0x8, addend: 0x0, symName: __ZNK5boost10wrapexceptINS_4asio22service_already_existsEE5cloneEv, symObjAddr: 0x4410, symBinAddr: 0x1000051E0, symSize: 0xE4 }
  - { offset: 0x21276, size: 0x8, addend: 0x0, symName: __ZNK5boost10wrapexceptINS_4asio22service_already_existsEE7rethrowEv, symObjAddr: 0x44F4, symBinAddr: 0x1000052C4, symSize: 0x6C }
  - { offset: 0x2129C, size: 0x8, addend: 0x0, symName: __ZN5boost10wrapexceptINS_4asio22service_already_existsEED0Ev, symObjAddr: 0x4560, symBinAddr: 0x100005330, symSize: 0x30 }
  - { offset: 0x212C8, size: 0x8, addend: 0x0, symName: __ZThn8_N5boost10wrapexceptINS_4asio22service_already_existsEED1Ev, symObjAddr: 0x4590, symBinAddr: 0x100005360, symSize: 0x1C }
  - { offset: 0x212DE, size: 0x8, addend: 0x0, symName: __ZThn8_N5boost10wrapexceptINS_4asio22service_already_existsEED0Ev, symObjAddr: 0x45AC, symBinAddr: 0x10000537C, symSize: 0x18 }
  - { offset: 0x212F4, size: 0x8, addend: 0x0, symName: __ZThn24_N5boost10wrapexceptINS_4asio22service_already_existsEED1Ev, symObjAddr: 0x45C4, symBinAddr: 0x100005394, symSize: 0x1C }
  - { offset: 0x2130A, size: 0x8, addend: 0x0, symName: __ZThn24_N5boost10wrapexceptINS_4asio22service_already_existsEED0Ev, symObjAddr: 0x45E0, symBinAddr: 0x1000053B0, symSize: 0x18 }
  - { offset: 0x21320, size: 0x8, addend: 0x0, symName: __ZN5boost4asio22service_already_existsD0Ev, symObjAddr: 0x45F8, symBinAddr: 0x1000053C8, symSize: 0x30 }
  - { offset: 0x21353, size: 0x8, addend: 0x0, symName: __ZN5boost10wrapexceptINS_4asio22service_already_existsEEC1ERKS3_, symObjAddr: 0x4628, symBinAddr: 0x1000053F8, symSize: 0x34 }
  - { offset: 0x21394, size: 0x8, addend: 0x0, symName: __ZN5boost10wrapexceptINS_4asio22service_already_existsEE7deleterD1Ev, symObjAddr: 0x465C, symBinAddr: 0x10000542C, symSize: 0x2C }
  - { offset: 0x213BE, size: 0x8, addend: 0x0, symName: __ZN5boost10wrapexceptINS_4asio22service_already_existsEEC2ERKS3_, symObjAddr: 0x4688, symBinAddr: 0x100005458, symSize: 0xAC }
  - { offset: 0x213F3, size: 0x8, addend: 0x0, symName: __ZN5boost10wrapexceptINS_4asio22service_already_existsEE7deleterD2Ev, symObjAddr: 0x4734, symBinAddr: 0x100005504, symSize: 0x58 }
  - { offset: 0x2141D, size: 0x8, addend: 0x0, symName: __ZN5boost10wrapexceptINS_4asio22service_already_existsEED2Ev, symObjAddr: 0x478C, symBinAddr: 0x10000555C, symSize: 0x44 }
  - { offset: 0x21449, size: 0x8, addend: 0x0, symName: __ZN5boost4asio22service_already_existsC2Ev, symObjAddr: 0x47D0, symBinAddr: 0x1000055A0, symSize: 0x44 }
  - { offset: 0x21475, size: 0x8, addend: 0x0, symName: __ZN5boost4asio6detail11scoped_lockINS1_11posix_mutexEED2Ev, symObjAddr: 0x4814, symBinAddr: 0x1000055E4, symSize: 0x5C }
  - { offset: 0x2149F, size: 0x8, addend: 0x0, symName: __ZN5boost4asio6detail11posix_mutex6unlockEv, symObjAddr: 0x4870, symBinAddr: 0x100005640, symSize: 0x24 }
  - { offset: 0x214C5, size: 0x8, addend: 0x0, symName: __ZN5boost4asio6detail10scoped_ptrINS1_36config_from_concurrency_hint_serviceEED2Ev, symObjAddr: 0x4894, symBinAddr: 0x100005664, symSize: 0x58 }
  - { offset: 0x214EF, size: 0x8, addend: 0x0, symName: __ZN5boost4asio6detail16service_registryC1ERNS0_17execution_contextE, symObjAddr: 0x48EC, symBinAddr: 0x1000056BC, symSize: 0x34 }
  - { offset: 0x21529, size: 0x8, addend: 0x0, symName: __ZN5boost4asio6detail16service_registryC2ERNS0_17execution_contextE, symObjAddr: 0x4920, symBinAddr: 0x1000056F0, symSize: 0x70 }
  - { offset: 0x21563, size: 0x8, addend: 0x0, symName: __ZN5boost4asio6detail11posix_mutexC1Ev, symObjAddr: 0x4990, symBinAddr: 0x100005760, symSize: 0x2C }
  - { offset: 0x2158F, size: 0x8, addend: 0x0, symName: __ZN5boost4asio6detail11posix_mutexC2Ev, symObjAddr: 0x49BC, symBinAddr: 0x10000578C, symSize: 0xC0 }
  - { offset: 0x215DD, size: 0x8, addend: 0x0, symName: __ZN5boost6system10error_codeC1EiRKNS0_14error_categoryE, symObjAddr: 0x4A7C, symBinAddr: 0x10000584C, symSize: 0x3C }
  - { offset: 0x21623, size: 0x8, addend: 0x0, symName: __ZN5boost15source_locationC1ERKNSt3__115source_locationE, symObjAddr: 0x4B00, symBinAddr: 0x1000058D0, symSize: 0x34 }
  - { offset: 0x2165B, size: 0x8, addend: 0x0, symName: __ZN5boost6system10error_codeC2EiRKNS0_14error_categoryE, symObjAddr: 0x4B34, symBinAddr: 0x100005904, symSize: 0x78 }
  - { offset: 0x216A1, size: 0x8, addend: 0x0, symName: __ZNK5boost6system10error_codecvbEv, symObjAddr: 0x4C64, symBinAddr: 0x100005A34, symSize: 0x28 }
  - { offset: 0x216C7, size: 0x8, addend: 0x0, symName: __ZNK5boost6system10error_code6failedEv, symObjAddr: 0x4CEC, symBinAddr: 0x100005ABC, symSize: 0xA8 }
  - { offset: 0x2173A, size: 0x8, addend: 0x0, symName: __ZN5boost6system12system_errorC1ERKNS0_10error_codeEPKc, symObjAddr: 0x4D94, symBinAddr: 0x100005B64, symSize: 0x3C }
  - { offset: 0x21780, size: 0x8, addend: 0x0, symName: __ZN5boost6system12system_errorD1Ev, symObjAddr: 0x4E44, symBinAddr: 0x100005C14, symSize: 0x2C }
  - { offset: 0x217AC, size: 0x8, addend: 0x0, symName: __ZN5boost6system12system_errorC2ERKNS0_10error_codeEPKc, symObjAddr: 0x4E70, symBinAddr: 0x100005C40, symSize: 0x144 }
  - { offset: 0x217F2, size: 0x8, addend: 0x0, symName: __ZNK5boost6system10error_code4whatEv, symObjAddr: 0x5034, symBinAddr: 0x100005E04, symSize: 0x164 }
  - { offset: 0x21828, size: 0x8, addend: 0x0, symName: __ZN5boost6system12system_errorD0Ev, symObjAddr: 0x5198, symBinAddr: 0x100005F68, symSize: 0x30 }
  - { offset: 0x21854, size: 0x8, addend: 0x0, symName: __ZNSt3__112basic_stringIcNS_11char_traitsIcEENS_9allocatorIcEEE6appendB8ne180100ERKS5_, symObjAddr: 0x51C8, symBinAddr: 0x100005F98, symSize: 0x4C }
  - { offset: 0x21889, size: 0x8, addend: 0x0, symName: __ZNSt3__112basic_stringIcNS_11char_traitsIcEENS_9allocatorIcEEEC1B8ne180100EOS5_, symObjAddr: 0x5214, symBinAddr: 0x100005FE4, symSize: 0x34 }
  - { offset: 0x218C2, size: 0x8, addend: 0x0, symName: __ZNKSt3__112basic_stringIcNS_11char_traitsIcEENS_9allocatorIcEEE4sizeB8ne180100Ev, symObjAddr: 0x5248, symBinAddr: 0x100006018, symSize: 0x54 }
  - { offset: 0x218E8, size: 0x8, addend: 0x0, symName: __ZNKSt3__112basic_stringIcNS_11char_traitsIcEENS_9allocatorIcEEE15__get_long_sizeB8ne180100Ev, symObjAddr: 0x529C, symBinAddr: 0x10000606C, symSize: 0x28 }
  - { offset: 0x2190E, size: 0x8, addend: 0x0, symName: __ZNKSt3__112basic_stringIcNS_11char_traitsIcEENS_9allocatorIcEEE16__get_short_sizeB8ne180100Ev, symObjAddr: 0x52C4, symBinAddr: 0x100006094, symSize: 0x34 }
  - { offset: 0x21934, size: 0x8, addend: 0x0, symName: __ZNSt3__112basic_stringIcNS_11char_traitsIcEENS_9allocatorIcEEEC2B8ne180100EOS5_, symObjAddr: 0x52F8, symBinAddr: 0x1000060C8, symSize: 0xB8 }
  - { offset: 0x219A0, size: 0x8, addend: 0x0, symName: __ZZNSt3__112basic_stringIcNS_11char_traitsIcEENS_9allocatorIcEEEC1B8ne180100EOS5_ENKUlRS5_E_clES7_, symObjAddr: 0x53B0, symBinAddr: 0x100006180, symSize: 0x40 }
  - { offset: 0x219D9, size: 0x8, addend: 0x0, symName: __ZNSt3__117__compressed_pairINS_12basic_stringIcNS_11char_traitsIcEENS_9allocatorIcEEE5__repES5_E5firstB8ne180100Ev, symObjAddr: 0x53F0, symBinAddr: 0x1000061C0, symSize: 0x24 }
  - { offset: 0x219FF, size: 0x8, addend: 0x0, symName: __ZNKSt3__112basic_stringIcNS_11char_traitsIcEENS_9allocatorIcEEE14__annotate_newB8ne180100Em, symObjAddr: 0x5414, symBinAddr: 0x1000061E4, symSize: 0x14 }
  - { offset: 0x21A34, size: 0x8, addend: 0x0, symName: __ZNKSt3__112basic_stringIcNS_11char_traitsIcEENS_9allocatorIcEEE17__annotate_deleteB8ne180100Ev, symObjAddr: 0x5428, symBinAddr: 0x1000061F8, symSize: 0x10 }
  - { offset: 0x21A5A, size: 0x8, addend: 0x0, symName: __ZNSt3__122__compressed_pair_elemINS_12basic_stringIcNS_11char_traitsIcEENS_9allocatorIcEEE5__repELi0ELb0EE5__getB8ne180100Ev, symObjAddr: 0x5438, symBinAddr: 0x100006208, symSize: 0x14 }
  - { offset: 0x21A80, size: 0x8, addend: 0x0, symName: __ZNK5boost6system10error_code7messageEv, symObjAddr: 0x544C, symBinAddr: 0x10000621C, symSize: 0xB8 }
  - { offset: 0x21AC2, size: 0x8, addend: 0x0, symName: __ZNSt3__112basic_stringIcNS_11char_traitsIcEENS_9allocatorIcEEEpLB8ne180100EPKc, symObjAddr: 0x5504, symBinAddr: 0x1000062D4, symSize: 0x2C }
  - { offset: 0x21AF7, size: 0x8, addend: 0x0, symName: __ZNK5boost6system10error_code9to_stringEv, symObjAddr: 0x5530, symBinAddr: 0x100006300, symSize: 0x178 }
  - { offset: 0x21B58, size: 0x8, addend: 0x0, symName: __ZNSt3__112basic_stringIcNS_11char_traitsIcEENS_9allocatorIcEEEpLB8ne180100ERKS5_, symObjAddr: 0x56A8, symBinAddr: 0x100006478, symSize: 0x2C }
  - { offset: 0x21B8D, size: 0x8, addend: 0x0, symName: __ZNK5boost6system10error_code12has_locationEv, symObjAddr: 0x56D4, symBinAddr: 0x1000064A4, symSize: 0x24 }
  - { offset: 0x21BB3, size: 0x8, addend: 0x0, symName: __ZNK5boost15source_location9to_stringEv, symObjAddr: 0x574C, symBinAddr: 0x10000651C, symSize: 0x210 }
  - { offset: 0x21C20, size: 0x8, addend: 0x0, symName: __ZNK5boost6system10error_code8categoryEv, symObjAddr: 0x595C, symBinAddr: 0x10000672C, symSize: 0x7C }
  - { offset: 0x21C46, size: 0x8, addend: 0x0, symName: __ZNK5boost6system6detail22interop_error_category4nameEv, symObjAddr: 0x59E4, symBinAddr: 0x1000067B4, symSize: 0x18 }
  - { offset: 0x21C6C, size: 0x8, addend: 0x0, symName: __ZNK5boost6system6detail22interop_error_category7messageEi, symObjAddr: 0x59FC, symBinAddr: 0x1000067CC, symSize: 0x84 }
  - { offset: 0x21CAF, size: 0x8, addend: 0x0, symName: __ZNK5boost6system6detail22interop_error_category7messageEiPcm, symObjAddr: 0x5A80, symBinAddr: 0x100006850, symSize: 0x58 }
  - { offset: 0x21D00, size: 0x8, addend: 0x0, symName: __ZNK5boost6system10error_code13category_nameEv, symObjAddr: 0x5B60, symBinAddr: 0x100006930, symSize: 0x90 }
  - { offset: 0x21D26, size: 0x8, addend: 0x0, symName: __ZNK5boost15source_location4lineEv, symObjAddr: 0x5BF0, symBinAddr: 0x1000069C0, symSize: 0x18 }
  - { offset: 0x21D4C, size: 0x8, addend: 0x0, symName: __ZNK5boost15source_location9file_nameEv, symObjAddr: 0x5C08, symBinAddr: 0x1000069D8, symSize: 0x18 }
  - { offset: 0x21D72, size: 0x8, addend: 0x0, symName: __ZNK5boost15source_location6columnEv, symObjAddr: 0x5C20, symBinAddr: 0x1000069F0, symSize: 0x18 }
  - { offset: 0x21D98, size: 0x8, addend: 0x0, symName: __ZNK5boost15source_location13function_nameEv, symObjAddr: 0x5C38, symBinAddr: 0x100006A08, symSize: 0x18 }
  - { offset: 0x21DBE, size: 0x8, addend: 0x0, symName: __ZNSt3__112basic_stringIcNS_11char_traitsIcEENS_9allocatorIcEEEpLB8ne180100Ec, symObjAddr: 0x5C50, symBinAddr: 0x100006A20, symSize: 0x34 }
  - { offset: 0x21E0B, size: 0x8, addend: 0x0, symName: __ZN5boost10wrapexceptINS_6system12system_errorEEC1ERKS2_RKNS_15source_locationE, symObjAddr: 0x5C84, symBinAddr: 0x100006A54, symSize: 0x3C }
  - { offset: 0x21E51, size: 0x8, addend: 0x0, symName: __ZN5boost10wrapexceptINS_6system12system_errorEED1Ev, symObjAddr: 0x5CC0, symBinAddr: 0x100006A90, symSize: 0x2C }
  - { offset: 0x21E7D, size: 0x8, addend: 0x0, symName: __ZN5boost10wrapexceptINS_6system12system_errorEEC2ERKS2_RKNS_15source_locationE, symObjAddr: 0x5CEC, symBinAddr: 0x100006ABC, symSize: 0x170 }
  - { offset: 0x21EC3, size: 0x8, addend: 0x0, symName: __ZN5boost6system12system_errorC2ERKS1_, symObjAddr: 0x5E5C, symBinAddr: 0x100006C2C, symSize: 0x58 }
  - { offset: 0x21EF8, size: 0x8, addend: 0x0, symName: __ZN5boost10wrapexceptINS_6system12system_errorEE9copy_fromEPKv, symObjAddr: 0x5EB4, symBinAddr: 0x100006C84, symSize: 0x14 }
  - { offset: 0x21F28, size: 0x8, addend: 0x0, symName: __ZN5boost10error_infoINS_11throw_file_EPKcEC1ES3_, symObjAddr: 0x5EF0, symBinAddr: 0x100006CC0, symSize: 0x34 }
  - { offset: 0x21F60, size: 0x8, addend: 0x0, symName: __ZN5boost10error_infoINS_11throw_line_EiEC1Ei, symObjAddr: 0x5F4C, symBinAddr: 0x100006D1C, symSize: 0x34 }
  - { offset: 0x21F98, size: 0x8, addend: 0x0, symName: __ZN5boost10error_infoINS_15throw_function_EPKcEC1ES3_, symObjAddr: 0x5FA8, symBinAddr: 0x100006D78, symSize: 0x34 }
  - { offset: 0x21FD0, size: 0x8, addend: 0x0, symName: __ZN5boost10error_infoINS_13throw_column_EiEC1Ei, symObjAddr: 0x6004, symBinAddr: 0x100006DD4, symSize: 0x34 }
  - { offset: 0x22008, size: 0x8, addend: 0x0, symName: __ZN5boost6system12system_errorD2Ev, symObjAddr: 0x6038, symBinAddr: 0x100006E08, symSize: 0x2C }
  - { offset: 0x22034, size: 0x8, addend: 0x0, symName: __ZNK5boost10wrapexceptINS_6system12system_errorEE5cloneEv, symObjAddr: 0x6064, symBinAddr: 0x100006E34, symSize: 0xE4 }
  - { offset: 0x22076, size: 0x8, addend: 0x0, symName: __ZNK5boost10wrapexceptINS_6system12system_errorEE7rethrowEv, symObjAddr: 0x6148, symBinAddr: 0x100006F18, symSize: 0x6C }
  - { offset: 0x2209C, size: 0x8, addend: 0x0, symName: __ZN5boost10wrapexceptINS_6system12system_errorEED0Ev, symObjAddr: 0x61B4, symBinAddr: 0x100006F84, symSize: 0x30 }
  - { offset: 0x220C8, size: 0x8, addend: 0x0, symName: __ZThn8_N5boost10wrapexceptINS_6system12system_errorEED1Ev, symObjAddr: 0x61E4, symBinAddr: 0x100006FB4, symSize: 0x1C }
  - { offset: 0x220DE, size: 0x8, addend: 0x0, symName: __ZThn8_N5boost10wrapexceptINS_6system12system_errorEED0Ev, symObjAddr: 0x6200, symBinAddr: 0x100006FD0, symSize: 0x18 }
  - { offset: 0x220F4, size: 0x8, addend: 0x0, symName: __ZThn48_N5boost10wrapexceptINS_6system12system_errorEED1Ev, symObjAddr: 0x6218, symBinAddr: 0x100006FE8, symSize: 0x1C }
  - { offset: 0x2210A, size: 0x8, addend: 0x0, symName: __ZThn48_N5boost10wrapexceptINS_6system12system_errorEED0Ev, symObjAddr: 0x6234, symBinAddr: 0x100007004, symSize: 0x18 }
  - { offset: 0x22120, size: 0x8, addend: 0x0, symName: __ZN5boost10error_infoINS_11throw_file_EPKcEC2ES3_, symObjAddr: 0x624C, symBinAddr: 0x10000701C, symSize: 0x20 }
  - { offset: 0x22158, size: 0x8, addend: 0x0, symName: __ZN5boost10error_infoINS_11throw_line_EiEC2Ei, symObjAddr: 0x626C, symBinAddr: 0x10000703C, symSize: 0x20 }
  - { offset: 0x22190, size: 0x8, addend: 0x0, symName: __ZN5boost10error_infoINS_15throw_function_EPKcEC2ES3_, symObjAddr: 0x628C, symBinAddr: 0x10000705C, symSize: 0x20 }
  - { offset: 0x221C8, size: 0x8, addend: 0x0, symName: __ZN5boost10error_infoINS_13throw_column_EiEC2Ei, symObjAddr: 0x62AC, symBinAddr: 0x10000707C, symSize: 0x20 }
  - { offset: 0x22206, size: 0x8, addend: 0x0, symName: __ZN5boost10wrapexceptINS_6system12system_errorEEC1ERKS3_, symObjAddr: 0x62CC, symBinAddr: 0x10000709C, symSize: 0x34 }
  - { offset: 0x22247, size: 0x8, addend: 0x0, symName: __ZN5boost10wrapexceptINS_6system12system_errorEE7deleterD1Ev, symObjAddr: 0x6300, symBinAddr: 0x1000070D0, symSize: 0x2C }
  - { offset: 0x22271, size: 0x8, addend: 0x0, symName: __ZN5boost10wrapexceptINS_6system12system_errorEEC2ERKS3_, symObjAddr: 0x632C, symBinAddr: 0x1000070FC, symSize: 0xAC }
  - { offset: 0x222A6, size: 0x8, addend: 0x0, symName: __ZN5boost10wrapexceptINS_6system12system_errorEE7deleterD2Ev, symObjAddr: 0x63D8, symBinAddr: 0x1000071A8, symSize: 0x58 }
  - { offset: 0x222D0, size: 0x8, addend: 0x0, symName: __ZN5boost10wrapexceptINS_6system12system_errorEED2Ev, symObjAddr: 0x6430, symBinAddr: 0x100007200, symSize: 0x44 }
  - { offset: 0x222FC, size: 0x8, addend: 0x0, symName: __ZN5boost15source_locationC2ERKNSt3__115source_locationE, symObjAddr: 0x6474, symBinAddr: 0x100007244, symSize: 0x6C }
  - { offset: 0x22334, size: 0x8, addend: 0x0, symName: __ZNKSt3__115source_location9file_nameB8ne180100Ev, symObjAddr: 0x64E0, symBinAddr: 0x1000072B0, symSize: 0x54 }
  - { offset: 0x2235A, size: 0x8, addend: 0x0, symName: __ZNKSt3__115source_location13function_nameB8ne180100Ev, symObjAddr: 0x6534, symBinAddr: 0x100007304, symSize: 0x54 }
  - { offset: 0x22380, size: 0x8, addend: 0x0, symName: __ZNKSt3__115source_location4lineB8ne180100Ev, symObjAddr: 0x6588, symBinAddr: 0x100007358, symSize: 0x50 }
  - { offset: 0x223A6, size: 0x8, addend: 0x0, symName: __ZNKSt3__115source_location6columnB8ne180100Ev, symObjAddr: 0x65D8, symBinAddr: 0x1000073A8, symSize: 0x50 }
  - { offset: 0x223CC, size: 0x8, addend: 0x0, symName: __ZN5boost4asio28config_from_concurrency_hintD2Ev, symObjAddr: 0x6628, symBinAddr: 0x1000073F8, symSize: 0x2C }
  - { offset: 0x223F8, size: 0x8, addend: 0x0, symName: __ZN5boost4asio17execution_context13service_makerD2Ev, symObjAddr: 0x6654, symBinAddr: 0x100007424, symSize: 0x2C }
  - { offset: 0x2243C, size: 0x8, addend: 0x0, symName: __ZN5boost4asio6detail10scoped_ptrINS1_9schedulerEEC1EPS3_, symObjAddr: 0x6680, symBinAddr: 0x100007450, symSize: 0x34 }
  - { offset: 0x22474, size: 0x8, addend: 0x0, symName: __ZN5boost4asio6detail10scoped_ptrINS1_9schedulerEE3getEv, symObjAddr: 0x66E4, symBinAddr: 0x1000074B4, symSize: 0x18 }
  - { offset: 0x2249A, size: 0x8, addend: 0x0, symName: __ZN5boost4asio6detail10scoped_ptrINS1_9schedulerEE7releaseEv, symObjAddr: 0x66FC, symBinAddr: 0x1000074CC, symSize: 0x24 }
  - { offset: 0x224CE, size: 0x8, addend: 0x0, symName: __ZN5boost4asio6detail10scoped_ptrINS1_9schedulerEED1Ev, symObjAddr: 0x6720, symBinAddr: 0x1000074F0, symSize: 0x2C }
  - { offset: 0x224F8, size: 0x8, addend: 0x0, symName: __ZN5boost4asio6detail10scoped_ptrINS1_9schedulerEEC2EPS3_, symObjAddr: 0x674C, symBinAddr: 0x10000751C, symSize: 0x20 }
  - { offset: 0x22530, size: 0x8, addend: 0x0, symName: __ZN5boost4asio6detail16service_registry11add_serviceINS1_9schedulerEEEvPT_, symObjAddr: 0x676C, symBinAddr: 0x10000753C, symSize: 0x54 }
  - { offset: 0x2257B, size: 0x8, addend: 0x0, symName: __ZN5boost4asio6detail16service_registry8init_keyINS1_9schedulerEEEvRNS0_17execution_context7service3keyEz, symObjAddr: 0x67C0, symBinAddr: 0x100007590, symSize: 0x2C }
  - { offset: 0x225B6, size: 0x8, addend: 0x0, symName: __ZN5boost4asio6detail16service_registry16init_key_from_idINS1_9schedulerEEEvRNS0_17execution_context7service3keyERKNS1_10service_idIT_EE, symObjAddr: 0x67EC, symBinAddr: 0x1000075BC, symSize: 0x2C }
  - { offset: 0x225EE, size: 0x8, addend: 0x0, symName: __ZN5boost4asio6detail10scoped_ptrINS1_9schedulerEED2Ev, symObjAddr: 0x6818, symBinAddr: 0x1000075E8, symSize: 0x58 }
  - { offset: 0x2261E, size: 0x8, addend: 0x0, symName: __ZN5boost4asio6detail16service_registry11use_serviceINS1_14kqueue_reactorEEERT_v, symObjAddr: 0x6898, symBinAddr: 0x100007668, symSize: 0x60 }
  - { offset: 0x22669, size: 0x8, addend: 0x0, symName: __ZN5boost4asio6detail16service_registry8init_keyINS1_14kqueue_reactorEEEvRNS0_17execution_context7service3keyEz, symObjAddr: 0x68F8, symBinAddr: 0x1000076C8, symSize: 0x2C }
  - { offset: 0x22698, size: 0x8, addend: 0x0, symName: __ZN5boost4asio6detail16service_registry6createINS1_14kqueue_reactorENS0_17execution_contextEEEPNS5_7serviceEPv, symObjAddr: 0x6924, symBinAddr: 0x1000076F4, symSize: 0x5C }
  - { offset: 0x226CF, size: 0x8, addend: 0x0, symName: __ZN5boost4asio6detail16service_registry14do_use_serviceERKNS0_17execution_context7service3keyEPFPS4_PvES9_, symObjAddr: 0x6980, symBinAddr: 0x100007750, symSize: 0x1C4 }
  - { offset: 0x22757, size: 0x8, addend: 0x0, symName: __ZN5boost4asio6detail16service_registry16init_key_from_idINS1_14kqueue_reactorEEEvRNS0_17execution_context7service3keyERKNS1_10service_idIT_EE, symObjAddr: 0x6B44, symBinAddr: 0x100007914, symSize: 0x2C }
  - { offset: 0x2278F, size: 0x8, addend: 0x0, symName: __ZN5boost4asio6detail14kqueue_reactorC1ERNS0_17execution_contextE, symObjAddr: 0x6B70, symBinAddr: 0x100007940, symSize: 0x34 }
  - { offset: 0x227C9, size: 0x8, addend: 0x0, symName: __ZN5boost4asio6detail14kqueue_reactorC2ERNS0_17execution_contextE, symObjAddr: 0x6BA4, symBinAddr: 0x100007974, symSize: 0x470 }
  - { offset: 0x2284B, size: 0x8, addend: 0x0, symName: __ZN5boost4asio6detail30execution_context_service_baseINS1_14kqueue_reactorEEC2ERNS0_17execution_contextE, symObjAddr: 0x7014, symBinAddr: 0x100007DE4, symSize: 0x44 }
  - { offset: 0x22884, size: 0x8, addend: 0x0, symName: __ZN5boost4asio6detail14scheduler_taskC2Ev, symObjAddr: 0x7058, symBinAddr: 0x100007E28, symSize: 0x24 }
  - { offset: 0x228B0, size: 0x8, addend: 0x0, symName: __ZN5boost4asio6configC1ERNS0_17execution_contextE, symObjAddr: 0x70A4, symBinAddr: 0x100007E74, symSize: 0x34 }
  - { offset: 0x228EE, size: 0x8, addend: 0x0, symName: __ZNK5boost4asio6config3getIbEENS0_10constraintIXsr11is_integralIT_EE5valueES4_E4typeEPKcS8_S4_, symObjAddr: 0x70D8, symBinAddr: 0x100007EA8, symSize: 0x50 }
  - { offset: 0x22947, size: 0x8, addend: 0x0, symName: __ZNK5boost4asio6config3getIiEENS0_10constraintIXsr11is_integralIT_EE5valueES4_E4typeEPKcS8_S4_, symObjAddr: 0x7128, symBinAddr: 0x100007EF8, symSize: 0x40 }
  - { offset: 0x229A0, size: 0x8, addend: 0x0, symName: __ZN5boost4asio6detail27conditionally_enabled_mutexC1Ebi, symObjAddr: 0x7168, symBinAddr: 0x100007F38, symSize: 0x48 }
  - { offset: 0x229E6, size: 0x8, addend: 0x0, symName: __ZN5boost4asio6detail14kqueue_reactor16do_kqueue_createEv, symObjAddr: 0x71B0, symBinAddr: 0x100007F80, symSize: 0x90 }
  - { offset: 0x22A2A, size: 0x8, addend: 0x0, symName: __ZN5boost4asio6detail23pipe_select_interrupterC1Ev, symObjAddr: 0x7240, symBinAddr: 0x100008010, symSize: 0x2C }
  - { offset: 0x22A56, size: 0x8, addend: 0x0, symName: __ZN5boost4asio6detail15timer_queue_setC1Ev, symObjAddr: 0x726C, symBinAddr: 0x10000803C, symSize: 0x2C }
  - { offset: 0x22A82, size: 0x8, addend: 0x0, symName: __ZNK5boost4asio6detail27conditionally_enabled_mutex7enabledEv, symObjAddr: 0x7298, symBinAddr: 0x100008068, symSize: 0x1C }
  - { offset: 0x22AA8, size: 0x8, addend: 0x0, symName: __ZNK5boost4asio6config3getIjEENS0_10constraintIXsr11is_integralIT_EE5valueES4_E4typeEPKcS8_S4_, symObjAddr: 0x72B4, symBinAddr: 0x100008084, symSize: 0x40 }
  - { offset: 0x22B01, size: 0x8, addend: 0x0, symName: __ZN5boost4asio6detail11object_poolINS1_14kqueue_reactor16descriptor_stateEEC1IJbiEEEjDpT_, symObjAddr: 0x72F4, symBinAddr: 0x1000080C4, symSize: 0x50 }
  - { offset: 0x22B65, size: 0x8, addend: 0x0, symName: __ZNK5boost4asio6detail23pipe_select_interrupter15read_descriptorEv, symObjAddr: 0x7344, symBinAddr: 0x100008114, symSize: 0x18 }
  - { offset: 0x22B8B, size: 0x8, addend: 0x0, symName: __ZN5boost4asio6detail11object_poolINS1_14kqueue_reactor16descriptor_stateEED1Ev, symObjAddr: 0x739C, symBinAddr: 0x10000816C, symSize: 0x2C }
  - { offset: 0x22BB5, size: 0x8, addend: 0x0, symName: __ZN5boost4asio6detail27conditionally_enabled_mutexD1Ev, symObjAddr: 0x73C8, symBinAddr: 0x100008198, symSize: 0x2C }
  - { offset: 0x22BDF, size: 0x8, addend: 0x0, symName: __ZN5boost4asio6detail23pipe_select_interrupterD1Ev, symObjAddr: 0x73F4, symBinAddr: 0x1000081C4, symSize: 0x2C }
  - { offset: 0x22C0B, size: 0x8, addend: 0x0, symName: __ZN5boost4asio6detail14scheduler_taskD2Ev, symObjAddr: 0x7420, symBinAddr: 0x1000081F0, symSize: 0x14 }
  - { offset: 0x22C35, size: 0x8, addend: 0x0, symName: __ZN5boost4asio6detail30execution_context_service_baseINS1_14kqueue_reactorEED2Ev, symObjAddr: 0x7434, symBinAddr: 0x100008204, symSize: 0x2C }
  - { offset: 0x22C62, size: 0x8, addend: 0x0, symName: __ZN5boost4asio6detail14kqueue_reactorD1Ev, symObjAddr: 0x7460, symBinAddr: 0x100008230, symSize: 0x2C }
  - { offset: 0x22C8E, size: 0x8, addend: 0x0, symName: __ZN5boost4asio6detail14kqueue_reactorD0Ev, symObjAddr: 0x748C, symBinAddr: 0x10000825C, symSize: 0x30 }
  - { offset: 0x22CBA, size: 0x8, addend: 0x0, symName: __ZN5boost4asio6detail14kqueue_reactor8shutdownEv, symObjAddr: 0x74BC, symBinAddr: 0x10000828C, symSize: 0x170 }
  - { offset: 0x22D28, size: 0x8, addend: 0x0, symName: __ZN5boost4asio6detail14kqueue_reactor11notify_forkENS0_17execution_context10fork_eventE, symObjAddr: 0x762C, symBinAddr: 0x1000083FC, symSize: 0x3B8 }
  - { offset: 0x22E2A, size: 0x8, addend: 0x0, symName: __ZN5boost4asio6detail14kqueue_reactor9interruptEv, symObjAddr: 0x7EB8, symBinAddr: 0x100008C88, symSize: 0x28 }
  - { offset: 0x22E53, size: 0x8, addend: 0x0, symName: __ZThn40_N5boost4asio6detail14kqueue_reactor3runElRNS1_8op_queueINS1_19scheduler_operationEEE, symObjAddr: 0x7EE0, symBinAddr: 0x100008CB0, symSize: 0x28 }
  - { offset: 0x22E6A, size: 0x8, addend: 0x0, symName: __ZThn40_N5boost4asio6detail14kqueue_reactor9interruptEv, symObjAddr: 0x7F08, symBinAddr: 0x100008CD8, symSize: 0x18 }
  - { offset: 0x22E81, size: 0x8, addend: 0x0, symName: __ZN5boost4asio6detail30execution_context_service_baseINS1_14kqueue_reactorEED1Ev, symObjAddr: 0x7F20, symBinAddr: 0x100008CF0, symSize: 0x14 }
  - { offset: 0x22EAE, size: 0x8, addend: 0x0, symName: __ZN5boost4asio6detail30execution_context_service_baseINS1_14kqueue_reactorEED0Ev, symObjAddr: 0x7F34, symBinAddr: 0x100008D04, symSize: 0xC }
  - { offset: 0x22EDB, size: 0x8, addend: 0x0, symName: __ZN5boost4asio6detail16service_registry11use_serviceINS1_9schedulerEEERT_v, symObjAddr: 0x7F40, symBinAddr: 0x100008D10, symSize: 0x60 }
  - { offset: 0x22F26, size: 0x8, addend: 0x0, symName: __ZN5boost4asio6detail16service_registry6createINS1_9schedulerENS0_17execution_contextEEEPNS5_7serviceEPv, symObjAddr: 0x7FA0, symBinAddr: 0x100008D70, symSize: 0x6C }
  - { offset: 0x22F5D, size: 0x8, addend: 0x0, symName: __ZN5boost4asio6configC2ERNS0_17execution_contextE, symObjAddr: 0x800C, symBinAddr: 0x100008DDC, symSize: 0x3C }
  - { offset: 0x22F95, size: 0x8, addend: 0x0, symName: __ZN5boost4asio6detail16service_registry11use_serviceINS0_14config_serviceEEERT_v, symObjAddr: 0x8070, symBinAddr: 0x100008E40, symSize: 0x60 }
  - { offset: 0x22FE0, size: 0x8, addend: 0x0, symName: __ZN5boost4asio6detail16service_registry8init_keyINS0_14config_serviceEEEvRNS0_17execution_context7service3keyEz, symObjAddr: 0x80D0, symBinAddr: 0x100008EA0, symSize: 0x2C }
  - { offset: 0x2300F, size: 0x8, addend: 0x0, symName: __ZN5boost4asio6detail16service_registry6createINS0_14config_serviceENS0_17execution_contextEEEPNS5_7serviceEPv, symObjAddr: 0x80FC, symBinAddr: 0x100008ECC, symSize: 0x5C }
  - { offset: 0x23046, size: 0x8, addend: 0x0, symName: __ZN5boost4asio14config_serviceC1ERNS0_17execution_contextE, symObjAddr: 0x8158, symBinAddr: 0x100008F28, symSize: 0x34 }
  - { offset: 0x23080, size: 0x8, addend: 0x0, symName: __ZNSt12out_of_rangeC1B8ne180100EPKc, symObjAddr: 0x83B8, symBinAddr: 0x100009188, symSize: 0x34 }
  - { offset: 0x230B8, size: 0x8, addend: 0x0, symName: __ZN5boost10wrapexceptISt12out_of_rangeEC1ERKS1_, symObjAddr: 0x83EC, symBinAddr: 0x1000091BC, symSize: 0x34 }
  - { offset: 0x230F0, size: 0x8, addend: 0x0, symName: __ZN5boost10wrapexceptISt12out_of_rangeED1Ev, symObjAddr: 0x8420, symBinAddr: 0x1000091F0, symSize: 0x2C }
  - { offset: 0x2311C, size: 0x8, addend: 0x0, symName: __ZN5boost10wrapexceptISt12out_of_rangeEC2ERKS1_, symObjAddr: 0x844C, symBinAddr: 0x10000921C, symSize: 0xCC }
  - { offset: 0x23154, size: 0x8, addend: 0x0, symName: __ZNSt12out_of_rangeC2B8ne180100ERKS_, symObjAddr: 0x8518, symBinAddr: 0x1000092E8, symSize: 0x44 }
  - { offset: 0x23188, size: 0x8, addend: 0x0, symName: __ZN5boost10wrapexceptISt12out_of_rangeE9copy_fromEPKv, symObjAddr: 0x855C, symBinAddr: 0x10000932C, symSize: 0x14 }
  - { offset: 0x231B8, size: 0x8, addend: 0x0, symName: __ZNK5boost10wrapexceptISt12out_of_rangeE5cloneEv, symObjAddr: 0x8570, symBinAddr: 0x100009340, symSize: 0xE4 }
  - { offset: 0x231FA, size: 0x8, addend: 0x0, symName: __ZNK5boost10wrapexceptISt12out_of_rangeE7rethrowEv, symObjAddr: 0x8654, symBinAddr: 0x100009424, symSize: 0x6C }
  - { offset: 0x23220, size: 0x8, addend: 0x0, symName: __ZN5boost10wrapexceptISt12out_of_rangeED0Ev, symObjAddr: 0x86C0, symBinAddr: 0x100009490, symSize: 0x30 }
  - { offset: 0x2324C, size: 0x8, addend: 0x0, symName: __ZThn8_N5boost10wrapexceptISt12out_of_rangeED1Ev, symObjAddr: 0x86F0, symBinAddr: 0x1000094C0, symSize: 0x1C }
  - { offset: 0x23262, size: 0x8, addend: 0x0, symName: __ZThn8_N5boost10wrapexceptISt12out_of_rangeED0Ev, symObjAddr: 0x870C, symBinAddr: 0x1000094DC, symSize: 0x18 }
  - { offset: 0x23278, size: 0x8, addend: 0x0, symName: __ZThn24_N5boost10wrapexceptISt12out_of_rangeED1Ev, symObjAddr: 0x8724, symBinAddr: 0x1000094F4, symSize: 0x1C }
  - { offset: 0x2328E, size: 0x8, addend: 0x0, symName: __ZThn24_N5boost10wrapexceptISt12out_of_rangeED0Ev, symObjAddr: 0x8740, symBinAddr: 0x100009510, symSize: 0x18 }
  - { offset: 0x232AA, size: 0x8, addend: 0x0, symName: __ZN5boost10wrapexceptISt12out_of_rangeEC1ERKS2_, symObjAddr: 0x8758, symBinAddr: 0x100009528, symSize: 0x34 }
  - { offset: 0x232EB, size: 0x8, addend: 0x0, symName: __ZN5boost10wrapexceptISt12out_of_rangeE7deleterD1Ev, symObjAddr: 0x878C, symBinAddr: 0x10000955C, symSize: 0x2C }
  - { offset: 0x23315, size: 0x8, addend: 0x0, symName: __ZN5boost10wrapexceptISt12out_of_rangeEC2ERKS2_, symObjAddr: 0x87B8, symBinAddr: 0x100009588, symSize: 0xAC }
  - { offset: 0x2334A, size: 0x8, addend: 0x0, symName: __ZN5boost10wrapexceptISt12out_of_rangeE7deleterD2Ev, symObjAddr: 0x8864, symBinAddr: 0x100009634, symSize: 0x58 }
  - { offset: 0x23374, size: 0x8, addend: 0x0, symName: __ZN5boost10wrapexceptISt12out_of_rangeED2Ev, symObjAddr: 0x88BC, symBinAddr: 0x10000968C, symSize: 0x44 }
  - { offset: 0x233A0, size: 0x8, addend: 0x0, symName: __ZNSt12out_of_rangeC2B8ne180100EPKc, symObjAddr: 0x8900, symBinAddr: 0x1000096D0, symSize: 0x44 }
  - { offset: 0x233D8, size: 0x8, addend: 0x0, symName: __ZNSt3__114numeric_limitsIiE3minB8ne180100Ev, symObjAddr: 0x8AFC, symBinAddr: 0x1000098CC, symSize: 0x14 }
  - { offset: 0x233EC, size: 0x8, addend: 0x0, symName: __ZNSt3__114numeric_limitsIiE3maxB8ne180100Ev, symObjAddr: 0x8B10, symBinAddr: 0x1000098E0, symSize: 0x14 }
  - { offset: 0x23400, size: 0x8, addend: 0x0, symName: __ZNSt3__123__libcpp_numeric_limitsIiLb1EE3minB8ne180100Ev, symObjAddr: 0x8B24, symBinAddr: 0x1000098F4, symSize: 0x8 }
  - { offset: 0x23414, size: 0x8, addend: 0x0, symName: __ZNSt3__123__libcpp_numeric_limitsIiLb1EE3maxB8ne180100Ev, symObjAddr: 0x8B2C, symBinAddr: 0x1000098FC, symSize: 0x8 }
  - { offset: 0x23428, size: 0x8, addend: 0x0, symName: __ZN5boost4asio6detail27conditionally_enabled_mutexC2Ebi, symObjAddr: 0x8B34, symBinAddr: 0x100009904, symSize: 0x80 }
  - { offset: 0x2346E, size: 0x8, addend: 0x0, symName: __ZN5boost4asio6detail23pipe_select_interrupterC2Ev, symObjAddr: 0x8BB4, symBinAddr: 0x100009984, symSize: 0x2C }
  - { offset: 0x2349A, size: 0x8, addend: 0x0, symName: __ZN5boost4asio6detail23pipe_select_interrupter16open_descriptorsEv, symObjAddr: 0x8BE0, symBinAddr: 0x1000099B0, symSize: 0x15C }
  - { offset: 0x234EC, size: 0x8, addend: 0x0, symName: __ZN5boost4asio6detail15timer_queue_setC2Ev, symObjAddr: 0x8D3C, symBinAddr: 0x100009B0C, symSize: 0x18 }
  - { offset: 0x23518, size: 0x8, addend: 0x0, symName: __ZNSt3__114numeric_limitsIjE3maxB8ne180100Ev, symObjAddr: 0x8EEC, symBinAddr: 0x100009CBC, symSize: 0x14 }
  - { offset: 0x2352C, size: 0x8, addend: 0x0, symName: __ZNSt3__123__libcpp_numeric_limitsIjLb1EE3maxB8ne180100Ev, symObjAddr: 0x8F00, symBinAddr: 0x100009CD0, symSize: 0x8 }
  - { offset: 0x23540, size: 0x8, addend: 0x0, symName: __ZN5boost4asio6detail11object_poolINS1_14kqueue_reactor16descriptor_stateEEC2IJbiEEEjDpT_, symObjAddr: 0x8F08, symBinAddr: 0x100009CD8, symSize: 0x108 }
  - { offset: 0x235B8, size: 0x8, addend: 0x0, symName: __ZN5boost4asio6detail18object_pool_access6createINS1_14kqueue_reactor16descriptor_stateEJbiEEEPT_DpT0_, symObjAddr: 0x9010, symBinAddr: 0x100009DE0, symSize: 0x70 }
  - { offset: 0x23608, size: 0x8, addend: 0x0, symName: __ZN5boost4asio6detail18object_pool_access4nextINS1_14kqueue_reactor16descriptor_stateEEERPT_S7_, symObjAddr: 0x9080, symBinAddr: 0x100009E50, symSize: 0x14 }
  - { offset: 0x23634, size: 0x8, addend: 0x0, symName: __ZN5boost4asio6detail18object_pool_access4prevINS1_14kqueue_reactor16descriptor_stateEEERPT_S7_, symObjAddr: 0x9094, symBinAddr: 0x100009E64, symSize: 0x18 }
  - { offset: 0x23660, size: 0x8, addend: 0x0, symName: __ZN5boost4asio6detail14kqueue_reactor16descriptor_stateC1Ebi, symObjAddr: 0x90AC, symBinAddr: 0x100009E7C, symSize: 0x48 }
  - { offset: 0x236A6, size: 0x8, addend: 0x0, symName: __ZN5boost4asio6detail14kqueue_reactor16descriptor_stateC2Ebi, symObjAddr: 0x90F4, symBinAddr: 0x100009EC4, symSize: 0x108 }
  - { offset: 0x236EC, size: 0x8, addend: 0x0, symName: __ZN5boost4asio6detail8op_queueINS1_10reactor_opEEC1Ev, symObjAddr: 0x91FC, symBinAddr: 0x100009FCC, symSize: 0x2C }
  - { offset: 0x23716, size: 0x8, addend: 0x0, symName: __ZN5boost4asio6detail8op_queueINS1_10reactor_opEED1Ev, symObjAddr: 0x9228, symBinAddr: 0x100009FF8, symSize: 0x2C }
  - { offset: 0x23740, size: 0x8, addend: 0x0, symName: __ZN5boost4asio6detail8op_queueINS1_10reactor_opEEC2Ev, symObjAddr: 0x9254, symBinAddr: 0x10000A024, symSize: 0x34 }
  - { offset: 0x2376A, size: 0x8, addend: 0x0, symName: __ZN5boost4asio6detail8op_queueINS1_10reactor_opEED2Ev, symObjAddr: 0x9288, symBinAddr: 0x10000A058, symSize: 0x78 }
  - { offset: 0x237A8, size: 0x8, addend: 0x0, symName: __ZN5boost4asio6detail8op_queueINS1_10reactor_opEE3popEv, symObjAddr: 0x9300, symBinAddr: 0x10000A0D0, symSize: 0x84 }
  - { offset: 0x237EA, size: 0x8, addend: 0x0, symName: __ZN5boost4asio6detail15op_queue_access7destroyINS1_10reactor_opEEEvPT_, symObjAddr: 0x9384, symBinAddr: 0x10000A154, symSize: 0x24 }
  - { offset: 0x23816, size: 0x8, addend: 0x0, symName: __ZN5boost4asio6detail15op_queue_access4nextINS1_10reactor_opEEEPT_S6_, symObjAddr: 0x93A8, symBinAddr: 0x10000A178, symSize: 0x18 }
  - { offset: 0x23848, size: 0x8, addend: 0x0, symName: __ZN5boost4asio6detail15op_queue_access4nextINS1_10reactor_opES4_EEvRPT_PT0_, symObjAddr: 0x93C0, symBinAddr: 0x10000A190, symSize: 0x24 }
  - { offset: 0x2388B, size: 0x8, addend: 0x0, symName: __ZN5boost4asio6detail19scheduler_operation7destroyEv, symObjAddr: 0x93E4, symBinAddr: 0x10000A1B4, symSize: 0x50 }
  - { offset: 0x238B1, size: 0x8, addend: 0x0, symName: __ZN5boost6system10error_codeC1Ev, symObjAddr: 0x9434, symBinAddr: 0x10000A204, symSize: 0x2C }
  - { offset: 0x238DB, size: 0x8, addend: 0x0, symName: __ZN5boost6system10error_codeC2Ev, symObjAddr: 0x9460, symBinAddr: 0x10000A230, symSize: 0x20 }
  - { offset: 0x23905, size: 0x8, addend: 0x0, symName: __ZN5boost6system12system_errorC1ERKNS0_10error_codeE, symObjAddr: 0x94D8, symBinAddr: 0x10000A2A8, symSize: 0x34 }
  - { offset: 0x2393D, size: 0x8, addend: 0x0, symName: __ZN5boost6system12system_errorC2ERKNS0_10error_codeE, symObjAddr: 0x950C, symBinAddr: 0x10000A2DC, symSize: 0x98 }
  - { offset: 0x23975, size: 0x8, addend: 0x0, symName: __ZN5boost4asio6detail11object_poolINS1_14kqueue_reactor16descriptor_stateEED2Ev, symObjAddr: 0x95A4, symBinAddr: 0x10000A374, symSize: 0x50 }
  - { offset: 0x2399F, size: 0x8, addend: 0x0, symName: __ZN5boost4asio6detail11object_poolINS1_14kqueue_reactor16descriptor_stateEE12destroy_listEPS4_, symObjAddr: 0x95F4, symBinAddr: 0x10000A3C4, symSize: 0x5C }
  - { offset: 0x239EF, size: 0x8, addend: 0x0, symName: __ZN5boost4asio6detail18object_pool_access7destroyINS1_14kqueue_reactor16descriptor_stateEEEvPT_, symObjAddr: 0x9650, symBinAddr: 0x10000A420, symSize: 0x48 }
  - { offset: 0x23A1B, size: 0x8, addend: 0x0, symName: __ZN5boost4asio6detail14kqueue_reactor16descriptor_stateD1Ev, symObjAddr: 0x9698, symBinAddr: 0x10000A468, symSize: 0x2C }
  - { offset: 0x23A47, size: 0x8, addend: 0x0, symName: __ZN5boost4asio6detail14kqueue_reactor16descriptor_stateD2Ev, symObjAddr: 0x96C4, symBinAddr: 0x10000A494, symSize: 0x74 }
  - { offset: 0x23A73, size: 0x8, addend: 0x0, symName: __ZN5boost4asio6detail27conditionally_enabled_mutexD2Ev, symObjAddr: 0x9738, symBinAddr: 0x10000A508, symSize: 0x38 }
  - { offset: 0x23A9D, size: 0x8, addend: 0x0, symName: __ZN5boost4asio6detail11posix_mutexD1Ev, symObjAddr: 0x9770, symBinAddr: 0x10000A540, symSize: 0x2C }
  - { offset: 0x23AC7, size: 0x8, addend: 0x0, symName: __ZN5boost4asio6detail11posix_mutexD2Ev, symObjAddr: 0x979C, symBinAddr: 0x10000A56C, symSize: 0x3C }
  - { offset: 0x23AF1, size: 0x8, addend: 0x0, symName: __ZN5boost4asio6detail23pipe_select_interrupterD2Ev, symObjAddr: 0x97D8, symBinAddr: 0x10000A5A8, symSize: 0x34 }
  - { offset: 0x23B1D, size: 0x8, addend: 0x0, symName: __ZN5boost4asio6detail23pipe_select_interrupter17close_descriptorsEv, symObjAddr: 0x980C, symBinAddr: 0x10000A5DC, symSize: 0x70 }
  - { offset: 0x23B45, size: 0x8, addend: 0x0, symName: __ZN5boost4asio6detail14kqueue_reactorD2Ev, symObjAddr: 0x987C, symBinAddr: 0x10000A64C, symSize: 0x94 }
  - { offset: 0x23B71, size: 0x8, addend: 0x0, symName: __ZN5boost4asio6detail27conditionally_enabled_mutex11scoped_lockC1ERS2_, symObjAddr: 0x9910, symBinAddr: 0x10000A6E0, symSize: 0x34 }
  - { offset: 0x23BA9, size: 0x8, addend: 0x0, symName: __ZN5boost4asio6detail27conditionally_enabled_mutex11scoped_lock6unlockEv, symObjAddr: 0x9944, symBinAddr: 0x10000A714, symSize: 0x48 }
  - { offset: 0x23BCF, size: 0x8, addend: 0x0, symName: __ZN5boost4asio6detail8op_queueINS1_19scheduler_operationEEC1Ev, symObjAddr: 0x998C, symBinAddr: 0x10000A75C, symSize: 0x2C }
  - { offset: 0x23BF9, size: 0x8, addend: 0x0, symName: __ZN5boost4asio6detail11object_poolINS1_14kqueue_reactor16descriptor_stateEE5firstEv, symObjAddr: 0x99B8, symBinAddr: 0x10000A788, symSize: 0x18 }
  - { offset: 0x23C25, size: 0x8, addend: 0x0, symName: __ZN5boost4asio6detail8op_queueINS1_19scheduler_operationEE4pushINS1_10reactor_opEEEvRNS2_IT_EE, symObjAddr: 0x99D0, symBinAddr: 0x10000A7A0, symSize: 0xB8 }
  - { offset: 0x23C76, size: 0x8, addend: 0x0, symName: __ZN5boost4asio6detail11object_poolINS1_14kqueue_reactor16descriptor_stateEE4freeEPS4_, symObjAddr: 0x9A88, symBinAddr: 0x10000A858, symSize: 0x11C }
  - { offset: 0x23CAA, size: 0x8, addend: 0x0, symName: __ZN5boost4asio6detail15timer_queue_set14get_all_timersERNS1_8op_queueINS1_19scheduler_operationEEE, symObjAddr: 0x9BA4, symBinAddr: 0x10000A974, symSize: 0x6C }
  - { offset: 0x23CFC, size: 0x8, addend: 0x0, symName: __ZN5boost4asio6detail9scheduler18abandon_operationsERNS1_8op_queueINS1_19scheduler_operationEEE, symObjAddr: 0x9C10, symBinAddr: 0x10000A9E0, symSize: 0x64 }
  - { offset: 0x23D43, size: 0x8, addend: 0x0, symName: __ZN5boost4asio6detail8op_queueINS1_19scheduler_operationEED1Ev, symObjAddr: 0x9C74, symBinAddr: 0x10000AA44, symSize: 0x2C }
  - { offset: 0x23D6D, size: 0x8, addend: 0x0, symName: __ZN5boost4asio6detail27conditionally_enabled_mutex11scoped_lockD1Ev, symObjAddr: 0x9CA0, symBinAddr: 0x10000AA70, symSize: 0x2C }
  - { offset: 0x23D97, size: 0x8, addend: 0x0, symName: __ZN5boost4asio6detail27conditionally_enabled_mutex11scoped_lockC2ERS2_, symObjAddr: 0x9CCC, symBinAddr: 0x10000AA9C, symSize: 0xA8 }
  - { offset: 0x23DCF, size: 0x8, addend: 0x0, symName: __ZN5boost4asio6detail27conditionally_enabled_mutex6unlockEv, symObjAddr: 0x9D74, symBinAddr: 0x10000AB44, symSize: 0x40 }
  - { offset: 0x23DF5, size: 0x8, addend: 0x0, symName: __ZN5boost4asio6detail8op_queueINS1_19scheduler_operationEEC2Ev, symObjAddr: 0x9DB4, symBinAddr: 0x10000AB84, symSize: 0x34 }
  - { offset: 0x23E1F, size: 0x8, addend: 0x0, symName: __ZN5boost4asio6detail15op_queue_access5frontINS1_10reactor_opEEERPT_RNS1_8op_queueIS5_EE, symObjAddr: 0x9DE8, symBinAddr: 0x10000ABB8, symSize: 0x14 }
  - { offset: 0x23E51, size: 0x8, addend: 0x0, symName: __ZN5boost4asio6detail15op_queue_access4nextINS1_19scheduler_operationES4_EEvRPT_PT0_, symObjAddr: 0x9DFC, symBinAddr: 0x10000ABCC, symSize: 0x24 }
  - { offset: 0x23E94, size: 0x8, addend: 0x0, symName: __ZN5boost4asio6detail15op_queue_access4backINS1_10reactor_opEEERPT_RNS1_8op_queueIS5_EE, symObjAddr: 0x9E20, symBinAddr: 0x10000ABF0, symSize: 0x18 }
  - { offset: 0x23EC0, size: 0x8, addend: 0x0, symName: __ZN5boost4asio6detail8op_queueINS1_19scheduler_operationEE4pushIS3_EEvRNS2_IT_EE, symObjAddr: 0x9E38, symBinAddr: 0x10000AC08, symSize: 0xB8 }
  - { offset: 0x23F11, size: 0x8, addend: 0x0, symName: __ZN5boost4asio6detail15op_queue_access5frontINS1_19scheduler_operationEEERPT_RNS1_8op_queueIS5_EE, symObjAddr: 0x9EF0, symBinAddr: 0x10000ACC0, symSize: 0x14 }
  - { offset: 0x23F3D, size: 0x8, addend: 0x0, symName: __ZN5boost4asio6detail15op_queue_access4backINS1_19scheduler_operationEEERPT_RNS1_8op_queueIS5_EE, symObjAddr: 0x9F04, symBinAddr: 0x10000ACD4, symSize: 0x18 }
  - { offset: 0x23F69, size: 0x8, addend: 0x0, symName: __ZN5boost4asio6detail8op_queueINS1_19scheduler_operationEED2Ev, symObjAddr: 0x9F1C, symBinAddr: 0x10000ACEC, symSize: 0x78 }
  - { offset: 0x23FA7, size: 0x8, addend: 0x0, symName: __ZN5boost4asio6detail8op_queueINS1_19scheduler_operationEE3popEv, symObjAddr: 0x9F94, symBinAddr: 0x10000AD64, symSize: 0x84 }
  - { offset: 0x23FE9, size: 0x8, addend: 0x0, symName: __ZN5boost4asio6detail15op_queue_access7destroyINS1_19scheduler_operationEEEvPT_, symObjAddr: 0xA018, symBinAddr: 0x10000ADE8, symSize: 0x24 }
  - { offset: 0x24015, size: 0x8, addend: 0x0, symName: __ZN5boost4asio6detail15op_queue_access4nextINS1_19scheduler_operationEEEPT_S6_, symObjAddr: 0xA03C, symBinAddr: 0x10000AE0C, symSize: 0x18 }
  - { offset: 0x24041, size: 0x8, addend: 0x0, symName: __ZN5boost4asio6detail27conditionally_enabled_mutex11scoped_lockD2Ev, symObjAddr: 0xA054, symBinAddr: 0x10000AE24, symSize: 0x60 }
  - { offset: 0x2406B, size: 0x8, addend: 0x0, symName: __ZN5boost4asio6detail23pipe_select_interrupter8recreateEv, symObjAddr: 0xA0B4, symBinAddr: 0x10000AE84, symSize: 0x3C }
  - { offset: 0x24093, size: 0x8, addend: 0x0, symName: __ZN5boost4asio6detail14kqueue_reactor11get_timeoutElR8timespec, symObjAddr: 0xA0F0, symBinAddr: 0x10000AEC0, symSize: 0xD0 }
  - { offset: 0x240E9, size: 0x8, addend: 0x0, symName: __ZN5boost4asio6detail23pipe_select_interrupter5resetEv, symObjAddr: 0xA1C0, symBinAddr: 0x10000AF90, symSize: 0x168 }
  - { offset: 0x2413B, size: 0x8, addend: 0x0, symName: __ZNK5boost4asio6detail8op_queueINS1_10reactor_opEE5emptyEv, symObjAddr: 0xA328, symBinAddr: 0x10000B0F8, symSize: 0x24 }
  - { offset: 0x24161, size: 0x8, addend: 0x0, symName: __ZN5boost4asio6detail8op_queueINS1_10reactor_opEE5frontEv, symObjAddr: 0xA34C, symBinAddr: 0x10000B11C, symSize: 0x18 }
  - { offset: 0x24187, size: 0x8, addend: 0x0, symName: __ZN5boost4asio6detail8op_queueINS1_19scheduler_operationEE4pushEPS3_, symObjAddr: 0xA364, symBinAddr: 0x10000B134, symSize: 0x80 }
  - { offset: 0x241BB, size: 0x8, addend: 0x0, symName: __ZN5boost4asio6detail10reactor_op7performEv, symObjAddr: 0xA3E4, symBinAddr: 0x10000B1B4, symSize: 0x28 }
  - { offset: 0x241E1, size: 0x8, addend: 0x0, symName: __ZN5boost4asio6detail27conditionally_enabled_mutex11scoped_lock4lockEv, symObjAddr: 0xA40C, symBinAddr: 0x10000B1DC, symSize: 0xE4 }
  - { offset: 0x24223, size: 0x8, addend: 0x0, symName: __ZN5boost4asio6detail15timer_queue_set16get_ready_timersERNS1_8op_queueINS1_19scheduler_operationEEE, symObjAddr: 0xA4F0, symBinAddr: 0x10000B2C0, symSize: 0x6C }
  - { offset: 0x24275, size: 0x8, addend: 0x0, symName: __ZNK5boost4asio6detail15timer_queue_set18wait_duration_usecEl, symObjAddr: 0xA55C, symBinAddr: 0x10000B32C, symSize: 0x7C }
  - { offset: 0x242D5, size: 0x8, addend: 0x0, symName: __ZN5boost4asio6detail11posix_mutex8try_lockEv, symObjAddr: 0xA5D8, symBinAddr: 0x10000B3A8, symSize: 0x30 }
  - { offset: 0x242FB, size: 0x8, addend: 0x0, symName: __ZN5boost4asio6detail23pipe_select_interrupter9interruptEv, symObjAddr: 0xA608, symBinAddr: 0x10000B3D8, symSize: 0x38 }
  - { offset: 0x2433F, size: 0x8, addend: 0x0, symName: __ZN5boost4asio6detail11scoped_lockINS1_11posix_mutexEE6unlockEv, symObjAddr: 0xA640, symBinAddr: 0x10000B410, symSize: 0x48 }
  - { offset: 0x24365, size: 0x8, addend: 0x0, symName: __ZN5boost4asio6detail11scoped_lockINS1_11posix_mutexEE4lockEv, symObjAddr: 0xA688, symBinAddr: 0x10000B458, symSize: 0x4C }
  - { offset: 0x24391, size: 0x8, addend: 0x0, symName: __ZN5boost4asio6detail16service_registry16auto_service_ptrD1Ev, symObjAddr: 0xA6D4, symBinAddr: 0x10000B4A4, symSize: 0x2C }
  - { offset: 0x243BB, size: 0x8, addend: 0x0, symName: __ZN5boost4asio6detail16service_registry16auto_service_ptrD2Ev, symObjAddr: 0xA700, symBinAddr: 0x10000B4D0, symSize: 0x38 }
  - { offset: 0x243E5, size: 0x8, addend: 0x0, symName: __ZN5boost4asio6detail16service_registry7destroyEPNS0_17execution_context7serviceE, symObjAddr: 0xA738, symBinAddr: 0x10000B508, symSize: 0x48 }
  - { offset: 0x2440A, size: 0x8, addend: 0x0, symName: __ZN5boost4asio6detail9schedulerC2ERNS0_17execution_contextEbPFPNS1_14scheduler_taskES4_E, symObjAddr: 0xA780, symBinAddr: 0x10000B550, symSize: 0x3A4 }
  - { offset: 0x24475, size: 0x8, addend: 0x0, symName: __ZN5boost4asio6detail30execution_context_service_baseINS1_9schedulerEEC2ERNS0_17execution_contextE, symObjAddr: 0xAB24, symBinAddr: 0x10000B8F4, symSize: 0x44 }
  - { offset: 0x244AE, size: 0x8, addend: 0x0, symName: __ZN5boost4asio6detail27conditionally_enabled_eventC1Ev, symObjAddr: 0xAB68, symBinAddr: 0x10000B938, symSize: 0x2C }
  - { offset: 0x244D8, size: 0x8, addend: 0x0, symName: __ZN5boost4asio6detail9scheduler14task_operationC1Ev, symObjAddr: 0xAB94, symBinAddr: 0x10000B964, symSize: 0x2C }
  - { offset: 0x24502, size: 0x8, addend: 0x0, symName: __ZNSt3__16atomicIlEC1B8ne180100El, symObjAddr: 0xABC0, symBinAddr: 0x10000B990, symSize: 0x34 }
  - { offset: 0x2453A, size: 0x8, addend: 0x0, symName: __ZNK5boost4asio6config3getIlEENS0_10constraintIXsr11is_integralIT_EE5valueES4_E4typeEPKcS8_S4_, symObjAddr: 0xABF4, symBinAddr: 0x10000B9C4, symSize: 0x40 }
  - { offset: 0x24593, size: 0x8, addend: 0x0, symName: __ZNSt3__113__atomic_baseIlLb1EEppB8ne180100Ev, symObjAddr: 0xAC34, symBinAddr: 0x10000BA04, symSize: 0x30 }
  - { offset: 0x245BF, size: 0x8, addend: 0x0, symName: __ZN5boost4asio6detail20posix_signal_blockerC1Ev, symObjAddr: 0xAC64, symBinAddr: 0x10000BA34, symSize: 0x2C }
  - { offset: 0x245E9, size: 0x8, addend: 0x0, symName: __ZN5boost4asio6detail9scheduler15thread_functionC1EPS2_, symObjAddr: 0xAC90, symBinAddr: 0x10000BA60, symSize: 0x34 }
  - { offset: 0x24621, size: 0x8, addend: 0x0, symName: __ZN5boost4asio6detail12posix_threadC1INS1_9scheduler15thread_functionEEET_j, symObjAddr: 0xACC4, symBinAddr: 0x10000BA94, symSize: 0x3C }
  - { offset: 0x2466C, size: 0x8, addend: 0x0, symName: __ZN5boost4asio6detail20posix_signal_blockerD1Ev, symObjAddr: 0xAD00, symBinAddr: 0x10000BAD0, symSize: 0x2C }
  - { offset: 0x24696, size: 0x8, addend: 0x0, symName: __ZN5boost4asio6detail9scheduler14task_operationD1Ev, symObjAddr: 0xAD2C, symBinAddr: 0x10000BAFC, symSize: 0x2C }
  - { offset: 0x246C2, size: 0x8, addend: 0x0, symName: __ZN5boost4asio6detail27conditionally_enabled_eventD1Ev, symObjAddr: 0xAD58, symBinAddr: 0x10000BB28, symSize: 0x2C }
  - { offset: 0x246EC, size: 0x8, addend: 0x0, symName: __ZN5boost4asio6detail30execution_context_service_baseINS1_9schedulerEED2Ev, symObjAddr: 0xAD84, symBinAddr: 0x10000BB54, symSize: 0x2C }
  - { offset: 0x24719, size: 0x8, addend: 0x0, symName: __ZN5boost4asio6detail9schedulerD1Ev, symObjAddr: 0xADB0, symBinAddr: 0x10000BB80, symSize: 0x2C }
  - { offset: 0x24745, size: 0x8, addend: 0x0, symName: __ZN5boost4asio6detail9schedulerD0Ev, symObjAddr: 0xADDC, symBinAddr: 0x10000BBAC, symSize: 0x30 }
  - { offset: 0x24771, size: 0x8, addend: 0x0, symName: __ZN5boost4asio6detail9scheduler8shutdownEv, symObjAddr: 0xAE0C, symBinAddr: 0x10000BBDC, symSize: 0x16C }
  - { offset: 0x247C3, size: 0x8, addend: 0x0, symName: __ZN5boost4asio6detail30execution_context_service_baseINS1_9schedulerEED1Ev, symObjAddr: 0xAF78, symBinAddr: 0x10000BD48, symSize: 0x14 }
  - { offset: 0x247F0, size: 0x8, addend: 0x0, symName: __ZN5boost4asio6detail30execution_context_service_baseINS1_9schedulerEED0Ev, symObjAddr: 0xAF8C, symBinAddr: 0x10000BD5C, symSize: 0xC }
  - { offset: 0x2481D, size: 0x8, addend: 0x0, symName: __ZN5boost4asio6detail27conditionally_enabled_eventC2Ev, symObjAddr: 0xAF98, symBinAddr: 0x10000BD68, symSize: 0x60 }
  - { offset: 0x24847, size: 0x8, addend: 0x0, symName: __ZN5boost4asio6detail11posix_eventC1Ev, symObjAddr: 0xAFF8, symBinAddr: 0x10000BDC8, symSize: 0x2C }
  - { offset: 0x24873, size: 0x8, addend: 0x0, symName: __ZN5boost4asio6detail11posix_eventC2Ev, symObjAddr: 0xB024, symBinAddr: 0x10000BDF4, symSize: 0xC4 }
  - { offset: 0x248C1, size: 0x8, addend: 0x0, symName: __ZN5boost4asio6detail9scheduler14task_operationC2Ev, symObjAddr: 0xB0E8, symBinAddr: 0x10000BEB8, symSize: 0x30 }
  - { offset: 0x248EB, size: 0x8, addend: 0x0, symName: __ZN5boost4asio6detail19scheduler_operationC2EPFvPvPS2_RKNS_6system10error_codeEmE, symObjAddr: 0xB118, symBinAddr: 0x10000BEE8, symSize: 0x28 }
  - { offset: 0x24923, size: 0x8, addend: 0x0, symName: __ZNSt3__16atomicIlEC2B8ne180100El, symObjAddr: 0xB140, symBinAddr: 0x10000BF10, symSize: 0x34 }
  - { offset: 0x2495B, size: 0x8, addend: 0x0, symName: __ZNSt3__113__atomic_baseIlLb1EEC2B8ne180100El, symObjAddr: 0xB174, symBinAddr: 0x10000BF44, symSize: 0x34 }
  - { offset: 0x24993, size: 0x8, addend: 0x0, symName: __ZNSt3__113__atomic_baseIlLb0EEC2B8ne180100El, symObjAddr: 0xB1A8, symBinAddr: 0x10000BF78, symSize: 0x34 }
  - { offset: 0x249CB, size: 0x8, addend: 0x0, symName: __ZNSt3__117__cxx_atomic_implIlNS_22__cxx_atomic_base_implIlEEEC1B8ne180100El, symObjAddr: 0xB1DC, symBinAddr: 0x10000BFAC, symSize: 0x34 }
  - { offset: 0x24A04, size: 0x8, addend: 0x0, symName: __ZNSt3__117__cxx_atomic_implIlNS_22__cxx_atomic_base_implIlEEEC2B8ne180100El, symObjAddr: 0xB210, symBinAddr: 0x10000BFE0, symSize: 0x34 }
  - { offset: 0x24A3D, size: 0x8, addend: 0x0, symName: __ZNSt3__122__cxx_atomic_base_implIlEC2El, symObjAddr: 0xB244, symBinAddr: 0x10000C014, symSize: 0x20 }
  - { offset: 0x24A76, size: 0x8, addend: 0x0, symName: __ZNSt3__114numeric_limitsIlE3minB8ne180100Ev, symObjAddr: 0xB41C, symBinAddr: 0x10000C1EC, symSize: 0x14 }
  - { offset: 0x24A8A, size: 0x8, addend: 0x0, symName: __ZNSt3__114numeric_limitsIlE3maxB8ne180100Ev, symObjAddr: 0xB430, symBinAddr: 0x10000C200, symSize: 0x14 }
  - { offset: 0x24A9E, size: 0x8, addend: 0x0, symName: __ZNSt3__123__libcpp_numeric_limitsIlLb1EE3minB8ne180100Ev, symObjAddr: 0xB444, symBinAddr: 0x10000C214, symSize: 0x8 }
  - { offset: 0x24AB2, size: 0x8, addend: 0x0, symName: __ZNSt3__123__libcpp_numeric_limitsIlLb1EE3maxB8ne180100Ev, symObjAddr: 0xB44C, symBinAddr: 0x10000C21C, symSize: 0x8 }
  - { offset: 0x24AC6, size: 0x8, addend: 0x0, symName: __ZNSt3__113__atomic_baseIlLb1EE9fetch_addB8ne180100ElNS_12memory_orderE, symObjAddr: 0xB454, symBinAddr: 0x10000C224, symSize: 0x34 }
  - { offset: 0x24B08, size: 0x8, addend: 0x0, symName: __ZN5boost4asio6detail20posix_signal_blockerC2Ev, symObjAddr: 0xB564, symBinAddr: 0x10000C334, symSize: 0x8C }
  - { offset: 0x24B46, size: 0x8, addend: 0x0, symName: __ZN5boost4asio6detail9scheduler15thread_functionC2EPS2_, symObjAddr: 0xB5F0, symBinAddr: 0x10000C3C0, symSize: 0x20 }
  - { offset: 0x24B7E, size: 0x8, addend: 0x0, symName: __ZN5boost4asio6detail12posix_threadC2INS1_9scheduler15thread_functionEEET_j, symObjAddr: 0xB610, symBinAddr: 0x10000C3E0, symSize: 0xB4 }
  - { offset: 0x24BC9, size: 0x8, addend: 0x0, symName: __ZN5boost4asio6detail12posix_thread12start_threadEPNS2_9func_baseE, symObjAddr: 0xB6C4, symBinAddr: 0x10000C494, symSize: 0xD0 }
  - { offset: 0x24C2F, size: 0x8, addend: 0x0, symName: __ZN5boost4asio6detail12posix_thread4funcINS1_9scheduler15thread_functionEEC1ES5_, symObjAddr: 0xB794, symBinAddr: 0x10000C564, symSize: 0x34 }
  - { offset: 0x24C67, size: 0x8, addend: 0x0, symName: _boost_asio_detail_posix_thread_function, symObjAddr: 0xB7C8, symBinAddr: 0x10000C598, symSize: 0x64 }
  - { offset: 0x24CA4, size: 0x8, addend: 0x0, symName: __ZN5boost4asio6detail12posix_thread18auto_func_base_ptrD1Ev, symObjAddr: 0xB82C, symBinAddr: 0x10000C5FC, symSize: 0x2C }
  - { offset: 0x24CCE, size: 0x8, addend: 0x0, symName: __ZN5boost4asio6detail12posix_thread18auto_func_base_ptrD2Ev, symObjAddr: 0xB858, symBinAddr: 0x10000C628, symSize: 0x58 }
  - { offset: 0x24CF8, size: 0x8, addend: 0x0, symName: __ZN5boost4asio6detail12posix_thread4funcINS1_9scheduler15thread_functionEEC2ES5_, symObjAddr: 0xB8B0, symBinAddr: 0x10000C680, symSize: 0x48 }
  - { offset: 0x24D30, size: 0x8, addend: 0x0, symName: __ZN5boost4asio6detail12posix_thread9func_baseC2Ev, symObjAddr: 0xB8F8, symBinAddr: 0x10000C6C8, symSize: 0x24 }
  - { offset: 0x24D5C, size: 0x8, addend: 0x0, symName: __ZN5boost4asio6detail12posix_thread4funcINS1_9scheduler15thread_functionEED1Ev, symObjAddr: 0xB91C, symBinAddr: 0x10000C6EC, symSize: 0x2C }
  - { offset: 0x24D88, size: 0x8, addend: 0x0, symName: __ZN5boost4asio6detail12posix_thread4funcINS1_9scheduler15thread_functionEED0Ev, symObjAddr: 0xB948, symBinAddr: 0x10000C718, symSize: 0x30 }
  - { offset: 0x24DB4, size: 0x8, addend: 0x0, symName: __ZN5boost4asio6detail12posix_thread4funcINS1_9scheduler15thread_functionEE3runEv, symObjAddr: 0xB978, symBinAddr: 0x10000C748, symSize: 0x28 }
  - { offset: 0x24DDA, size: 0x8, addend: 0x0, symName: __ZN5boost4asio6detail12posix_thread9func_baseD1Ev, symObjAddr: 0xB9A0, symBinAddr: 0x10000C770, symSize: 0x14 }
  - { offset: 0x24E04, size: 0x8, addend: 0x0, symName: __ZN5boost4asio6detail12posix_thread9func_baseD0Ev, symObjAddr: 0xB9B4, symBinAddr: 0x10000C784, symSize: 0xC }
  - { offset: 0x24E2E, size: 0x8, addend: 0x0, symName: __ZN5boost4asio6detail12posix_thread4funcINS1_9scheduler15thread_functionEED2Ev, symObjAddr: 0xB9C0, symBinAddr: 0x10000C790, symSize: 0x2C }
  - { offset: 0x24E5A, size: 0x8, addend: 0x0, symName: __ZN5boost4asio6detail12posix_thread9func_baseD2Ev, symObjAddr: 0xB9EC, symBinAddr: 0x10000C7BC, symSize: 0x14 }
  - { offset: 0x24E84, size: 0x8, addend: 0x0, symName: __ZN5boost4asio6detail9scheduler15thread_functionclEv, symObjAddr: 0xBA00, symBinAddr: 0x10000C7D0, symSize: 0x40 }
  - { offset: 0x24EB8, size: 0x8, addend: 0x0, symName: __ZN5boost4asio6detail9scheduler3runERNS_6system10error_codeE, symObjAddr: 0xBA40, symBinAddr: 0x10000C810, symSize: 0x1AC }
  - { offset: 0x24F28, size: 0x8, addend: 0x0, symName: __ZNKSt3__113__atomic_baseIlLb0EEcvlB8ne180100Ev, symObjAddr: 0xBBEC, symBinAddr: 0x10000C9BC, symSize: 0x28 }
  - { offset: 0x24F4E, size: 0x8, addend: 0x0, symName: __ZN5boost4asio6detail9scheduler4stopEv, symObjAddr: 0xBC14, symBinAddr: 0x10000C9E4, symSize: 0x6C }
  - { offset: 0x24F8C, size: 0x8, addend: 0x0, symName: __ZN5boost4asio6detail21scheduler_thread_infoC1Ev, symObjAddr: 0xBC80, symBinAddr: 0x10000CA50, symSize: 0x2C }
  - { offset: 0x24FB8, size: 0x8, addend: 0x0, symName: __ZN5boost4asio6detail10call_stackINS1_14thread_contextENS1_16thread_info_baseEE7contextC1EPS3_RS4_, symObjAddr: 0xBCAC, symBinAddr: 0x10000CA7C, symSize: 0x3C }
  - { offset: 0x24FFE, size: 0x8, addend: 0x0, symName: __ZN5boost4asio6detail9scheduler10do_run_oneERNS1_27conditionally_enabled_mutex11scoped_lockERNS1_21scheduler_thread_infoERKNS_6system10error_codeE, symObjAddr: 0xBCE8, symBinAddr: 0x10000CAB8, symSize: 0x320 }
  - { offset: 0x250B2, size: 0x8, addend: 0x0, symName: __ZNSt3__114numeric_limitsImE3maxB8ne180100Ev, symObjAddr: 0xC008, symBinAddr: 0x10000CDD8, symSize: 0x14 }
  - { offset: 0x250C6, size: 0x8, addend: 0x0, symName: __ZN5boost4asio6detail10call_stackINS1_14thread_contextENS1_16thread_info_baseEE7contextD1Ev, symObjAddr: 0xC01C, symBinAddr: 0x10000CDEC, symSize: 0x2C }
  - { offset: 0x250F0, size: 0x8, addend: 0x0, symName: __ZN5boost4asio6detail21scheduler_thread_infoD1Ev, symObjAddr: 0xC048, symBinAddr: 0x10000CE18, symSize: 0x2C }
  - { offset: 0x2511C, size: 0x8, addend: 0x0, symName: __ZNKSt3__113__atomic_baseIlLb0EE4loadB8ne180100ENS_12memory_orderE, symObjAddr: 0xC074, symBinAddr: 0x10000CE44, symSize: 0x2C }
  - { offset: 0x25150, size: 0x8, addend: 0x0, symName: __ZN5boost4asio6detail9scheduler16stop_all_threadsERNS1_27conditionally_enabled_mutex11scoped_lockE, symObjAddr: 0xC120, symBinAddr: 0x10000CEF0, symSize: 0x84 }
  - { offset: 0x25188, size: 0x8, addend: 0x0, symName: __ZN5boost4asio6detail27conditionally_enabled_event10signal_allERNS1_27conditionally_enabled_mutex11scoped_lockE, symObjAddr: 0xC1A4, symBinAddr: 0x10000CF74, symSize: 0x50 }
  - { offset: 0x251BC, size: 0x8, addend: 0x0, symName: __ZN5boost4asio6detail11posix_event10signal_allINS1_27conditionally_enabled_mutex11scoped_lockEEEvRT_, symObjAddr: 0xC1F4, symBinAddr: 0x10000CFC4, symSize: 0x70 }
  - { offset: 0x251F9, size: 0x8, addend: 0x0, symName: __ZNK5boost4asio6detail27conditionally_enabled_mutex11scoped_lock6lockedEv, symObjAddr: 0xC264, symBinAddr: 0x10000D034, symSize: 0x1C }
  - { offset: 0x2521F, size: 0x8, addend: 0x0, symName: __ZN5boost4asio6detail21scheduler_thread_infoC2Ev, symObjAddr: 0xC280, symBinAddr: 0x10000D050, symSize: 0x60 }
  - { offset: 0x2524B, size: 0x8, addend: 0x0, symName: __ZN5boost4asio6detail16thread_info_baseC2Ev, symObjAddr: 0xC2E0, symBinAddr: 0x10000D0B0, symSize: 0x84 }
  - { offset: 0x25291, size: 0x8, addend: 0x0, symName: __ZN5boost4asio6detail16thread_info_baseD2Ev, symObjAddr: 0xC364, symBinAddr: 0x10000D134, symSize: 0xA8 }
  - { offset: 0x252CF, size: 0x8, addend: 0x0, symName: __ZNSt13exception_ptrC1B8ne180100Ev, symObjAddr: 0xC40C, symBinAddr: 0x10000D1DC, symSize: 0x2C }
  - { offset: 0x252F9, size: 0x8, addend: 0x0, symName: __ZNSt13exception_ptrC2B8ne180100Ev, symObjAddr: 0xC438, symBinAddr: 0x10000D208, symSize: 0x18 }
  - { offset: 0x25323, size: 0x8, addend: 0x0, symName: __ZN5boost4asio6detail10call_stackINS1_14thread_contextENS1_16thread_info_baseEE7contextC2EPS3_RS4_, symObjAddr: 0xC4A0, symBinAddr: 0x10000D270, symSize: 0x9C }
  - { offset: 0x25369, size: 0x8, addend: 0x0, symName: __ZNK5boost4asio6detail15keyword_tss_ptrINS1_10call_stackINS1_14thread_contextENS1_16thread_info_baseEE7contextEEcvPS7_Ev, symObjAddr: 0xC53C, symBinAddr: 0x10000D30C, symSize: 0x30 }
  - { offset: 0x2538F, size: 0x8, addend: 0x0, symName: __ZN5boost4asio6detail7tss_ptrINS1_10call_stackINS1_14thread_contextENS1_16thread_info_baseEE7contextEEaSEPS7_, symObjAddr: 0xC56C, symBinAddr: 0x10000D33C, symSize: 0x2C }
  - { offset: 0x253C3, size: 0x8, addend: 0x0, symName: __ZN5boost4asio6detail15keyword_tss_ptrINS1_10call_stackINS1_14thread_contextENS1_16thread_info_baseEE7contextEEaSEPS7_, symObjAddr: 0xC598, symBinAddr: 0x10000D368, symSize: 0x38 }
  - { offset: 0x253F7, size: 0x8, addend: 0x0, symName: __ZNK5boost4asio6detail8op_queueINS1_19scheduler_operationEE5emptyEv, symObjAddr: 0xC5D0, symBinAddr: 0x10000D3A0, symSize: 0x24 }
  - { offset: 0x2541D, size: 0x8, addend: 0x0, symName: __ZN5boost4asio6detail8op_queueINS1_19scheduler_operationEE5frontEv, symObjAddr: 0xC5F4, symBinAddr: 0x10000D3C4, symSize: 0x18 }
  - { offset: 0x25443, size: 0x8, addend: 0x0, symName: __ZN5boost4asio6detail27conditionally_enabled_event21unlock_and_signal_oneERNS1_27conditionally_enabled_mutex11scoped_lockE, symObjAddr: 0xC60C, symBinAddr: 0x10000D3DC, symSize: 0x50 }
  - { offset: 0x25483, size: 0x8, addend: 0x0, symName: __ZN5boost4asio6detail9scheduler12task_cleanupD1Ev, symObjAddr: 0xC65C, symBinAddr: 0x10000D42C, symSize: 0x2C }
  - { offset: 0x254AD, size: 0x8, addend: 0x0, symName: __ZN5boost4asio6detail9scheduler26wake_one_thread_and_unlockERNS1_27conditionally_enabled_mutex11scoped_lockE, symObjAddr: 0xC688, symBinAddr: 0x10000D458, symSize: 0xA8 }
  - { offset: 0x254E5, size: 0x8, addend: 0x0, symName: __ZN5boost4asio6detail19scheduler_operation8completeEPvRKNS_6system10error_codeEm, symObjAddr: 0xC730, symBinAddr: 0x10000D500, symSize: 0x40 }
  - { offset: 0x25535, size: 0x8, addend: 0x0, symName: __ZN5boost4asio6detail16thread_info_base25rethrow_pending_exceptionEv, symObjAddr: 0xC770, symBinAddr: 0x10000D540, symSize: 0x98 }
  - { offset: 0x2557D, size: 0x8, addend: 0x0, symName: __ZN5boost4asio6detail9scheduler12work_cleanupD1Ev, symObjAddr: 0xC808, symBinAddr: 0x10000D5D8, symSize: 0x2C }
  - { offset: 0x255A7, size: 0x8, addend: 0x0, symName: __ZN5boost4asio6detail27conditionally_enabled_event5clearERNS1_27conditionally_enabled_mutex11scoped_lockE, symObjAddr: 0xC834, symBinAddr: 0x10000D604, symSize: 0x50 }
  - { offset: 0x255DB, size: 0x8, addend: 0x0, symName: __ZN5boost4asio6detail27conditionally_enabled_event13wait_for_usecERNS1_27conditionally_enabled_mutex11scoped_lockEl, symObjAddr: 0xC884, symBinAddr: 0x10000D654, symSize: 0xCC }
  - { offset: 0x2561D, size: 0x8, addend: 0x0, symName: __ZN5boost4asio6detail27conditionally_enabled_event4waitERNS1_27conditionally_enabled_mutex11scoped_lockE, symObjAddr: 0xC950, symBinAddr: 0x10000D720, symSize: 0x98 }
  - { offset: 0x25651, size: 0x8, addend: 0x0, symName: __ZN5boost4asio6detail11posix_event21unlock_and_signal_oneINS1_27conditionally_enabled_mutex11scoped_lockEEEvRT_, symObjAddr: 0xC9E8, symBinAddr: 0x10000D7B8, symSize: 0xA4 }
  - { offset: 0x2569C, size: 0x8, addend: 0x0, symName: __ZN5boost4asio6detail9scheduler12task_cleanupD2Ev, symObjAddr: 0xCA8C, symBinAddr: 0x10000D85C, symSize: 0xC4 }
  - { offset: 0x256C6, size: 0x8, addend: 0x0, symName: __ZNSt3__113__atomic_baseIlLb1EEpLB8ne180100El, symObjAddr: 0xCB7C, symBinAddr: 0x10000D94C, symSize: 0x38 }
  - { offset: 0x256FA, size: 0x8, addend: 0x0, symName: __ZN5boost4asio6detail27conditionally_enabled_event27maybe_unlock_and_signal_oneERNS1_27conditionally_enabled_mutex11scoped_lockE, symObjAddr: 0xCBB4, symBinAddr: 0x10000D984, symSize: 0x78 }
  - { offset: 0x2572E, size: 0x8, addend: 0x0, symName: __ZN5boost4asio6detail11posix_event27maybe_unlock_and_signal_oneINS1_27conditionally_enabled_mutex11scoped_lockEEEbRT_, symObjAddr: 0xCC2C, symBinAddr: 0x10000D9FC, symSize: 0xC0 }
  - { offset: 0x2576B, size: 0x8, addend: 0x0, symName: __ZN5boost4asio6detail9scheduler12work_cleanupD2Ev, symObjAddr: 0xCCEC, symBinAddr: 0x10000DABC, symSize: 0xF0 }
  - { offset: 0x25795, size: 0x8, addend: 0x0, symName: __ZN5boost4asio6detail9scheduler13work_finishedEv, symObjAddr: 0xCDDC, symBinAddr: 0x10000DBAC, symSize: 0x48 }
  - { offset: 0x257BB, size: 0x8, addend: 0x0, symName: __ZNSt3__113__atomic_baseIlLb1EEmmB8ne180100Ev, symObjAddr: 0xCE24, symBinAddr: 0x10000DBF4, symSize: 0x30 }
  - { offset: 0x257E1, size: 0x8, addend: 0x0, symName: __ZNSt3__113__atomic_baseIlLb1EE9fetch_subB8ne180100ElNS_12memory_orderE, symObjAddr: 0xCE54, symBinAddr: 0x10000DC24, symSize: 0x34 }
  - { offset: 0x25823, size: 0x8, addend: 0x0, symName: __ZN5boost4asio6detail11posix_event5clearINS1_27conditionally_enabled_mutex11scoped_lockEEEvRT_, symObjAddr: 0xCF78, symBinAddr: 0x10000DD48, symSize: 0x6C }
  - { offset: 0x25860, size: 0x8, addend: 0x0, symName: __ZN5boost4asio6detail11posix_event13wait_for_usecINS1_27conditionally_enabled_mutex11scoped_lockEEEbRT_l, symObjAddr: 0xCFE4, symBinAddr: 0x10000DDB4, symSize: 0x100 }
  - { offset: 0x258CD, size: 0x8, addend: 0x0, symName: __ZN5boost4asio6detail10null_eventC1Ev, symObjAddr: 0xD0E4, symBinAddr: 0x10000DEB4, symSize: 0x2C }
  - { offset: 0x258F7, size: 0x8, addend: 0x0, symName: __ZN5boost4asio6detail10null_event13wait_for_usecINS1_27conditionally_enabled_mutex11scoped_lockEEEbRT_l, symObjAddr: 0xD110, symBinAddr: 0x10000DEE0, symSize: 0x34 }
  - { offset: 0x2593E, size: 0x8, addend: 0x0, symName: __ZN5boost4asio6detail10null_eventD1Ev, symObjAddr: 0xD144, symBinAddr: 0x10000DF14, symSize: 0x2C }
  - { offset: 0x25968, size: 0x8, addend: 0x0, symName: __ZN5boost4asio6detail27conditionally_enabled_mutex11scoped_lock5mutexEv, symObjAddr: 0xD170, symBinAddr: 0x10000DF40, symSize: 0x1C }
  - { offset: 0x2598E, size: 0x8, addend: 0x0, symName: __ZN5boost4asio6detail10null_eventC2Ev, symObjAddr: 0xD18C, symBinAddr: 0x10000DF5C, symSize: 0x2C }
  - { offset: 0x259B8, size: 0x8, addend: 0x0, symName: __ZN5boost4asio6detail10null_event16do_wait_for_usecEl, symObjAddr: 0xD1B8, symBinAddr: 0x10000DF88, symSize: 0x5C }
  - { offset: 0x259EB, size: 0x8, addend: 0x0, symName: __ZN5boost4asio6detail10null_eventD2Ev, symObjAddr: 0xD214, symBinAddr: 0x10000DFE4, symSize: 0x2C }
  - { offset: 0x25A15, size: 0x8, addend: 0x0, symName: __ZN5boost4asio6detail11posix_event4waitINS1_27conditionally_enabled_mutex11scoped_lockEEEvRT_, symObjAddr: 0xD240, symBinAddr: 0x10000E010, symSize: 0xB0 }
  - { offset: 0x25A52, size: 0x8, addend: 0x0, symName: __ZN5boost4asio6detail10null_event4waitINS1_27conditionally_enabled_mutex11scoped_lockEEEvRT_, symObjAddr: 0xD2F0, symBinAddr: 0x10000E0C0, symSize: 0x24 }
  - { offset: 0x25A8B, size: 0x8, addend: 0x0, symName: __ZN5boost4asio6detail10null_event7do_waitEv, symObjAddr: 0xD314, symBinAddr: 0x10000E0E4, symSize: 0x14 }
  - { offset: 0x25AA1, size: 0x8, addend: 0x0, symName: __ZNSt3__123__libcpp_numeric_limitsImLb1EE3maxB8ne180100Ev, symObjAddr: 0xD328, symBinAddr: 0x10000E0F8, symSize: 0x8 }
  - { offset: 0x25AB5, size: 0x8, addend: 0x0, symName: __ZN5boost4asio6detail10call_stackINS1_14thread_contextENS1_16thread_info_baseEE7contextD2Ev, symObjAddr: 0xD330, symBinAddr: 0x10000E100, symSize: 0x48 }
  - { offset: 0x25ADF, size: 0x8, addend: 0x0, symName: __ZN5boost4asio6detail21scheduler_thread_infoD2Ev, symObjAddr: 0xD378, symBinAddr: 0x10000E148, symSize: 0x38 }
  - { offset: 0x25B0B, size: 0x8, addend: 0x0, symName: __ZN5boost4asio6detail20posix_signal_blockerD2Ev, symObjAddr: 0xD3B0, symBinAddr: 0x10000E180, symSize: 0x64 }
  - { offset: 0x25B35, size: 0x8, addend: 0x0, symName: __ZN5boost4asio6detail9scheduler14task_operationD2Ev, symObjAddr: 0xD414, symBinAddr: 0x10000E1E4, symSize: 0x2C }
  - { offset: 0x25B61, size: 0x8, addend: 0x0, symName: __ZN5boost4asio6detail19scheduler_operationD2Ev, symObjAddr: 0xD440, symBinAddr: 0x10000E210, symSize: 0x14 }
  - { offset: 0x25B8B, size: 0x8, addend: 0x0, symName: __ZN5boost4asio6detail27conditionally_enabled_eventD2Ev, symObjAddr: 0xD454, symBinAddr: 0x10000E224, symSize: 0x38 }
  - { offset: 0x25BB5, size: 0x8, addend: 0x0, symName: __ZN5boost4asio6detail11posix_eventD1Ev, symObjAddr: 0xD48C, symBinAddr: 0x10000E25C, symSize: 0x2C }
  - { offset: 0x25BDF, size: 0x8, addend: 0x0, symName: __ZN5boost4asio6detail11posix_eventD2Ev, symObjAddr: 0xD4B8, symBinAddr: 0x10000E288, symSize: 0x3C }
  - { offset: 0x25C09, size: 0x8, addend: 0x0, symName: __ZN5boost4asio6detail9schedulerD2Ev, symObjAddr: 0xD4F4, symBinAddr: 0x10000E2C4, symSize: 0x114 }
  - { offset: 0x25C49, size: 0x8, addend: 0x0, symName: __ZN5boost4asio6detail12posix_thread4joinEv, symObjAddr: 0xD608, symBinAddr: 0x10000E3D8, symSize: 0x50 }
  - { offset: 0x25C71, size: 0x8, addend: 0x0, symName: __ZN5boost4asio6detail12posix_threadD1Ev, symObjAddr: 0xD658, symBinAddr: 0x10000E428, symSize: 0x2C }
  - { offset: 0x25C9D, size: 0x8, addend: 0x0, symName: __ZN5boost4asio6detail12posix_threadD2Ev, symObjAddr: 0xD684, symBinAddr: 0x10000E454, symSize: 0x5C }
  - { offset: 0x25CC9, size: 0x8, addend: 0x0, symName: __ZN5boost4asio17execution_context8shutdownEv, symObjAddr: 0xD6E0, symBinAddr: 0x10000E4B0, symSize: 0x28 }
  - { offset: 0x25CF1, size: 0x8, addend: 0x0, symName: __ZN5boost4asio17execution_context7destroyEv, symObjAddr: 0xD708, symBinAddr: 0x10000E4D8, symSize: 0x28 }
  - { offset: 0x25D19, size: 0x8, addend: 0x0, symName: __ZN5boost4asio6detail16service_registryD1Ev, symObjAddr: 0xD730, symBinAddr: 0x10000E500, symSize: 0x2C }
  - { offset: 0x25D45, size: 0x8, addend: 0x0, symName: __ZN5boost4asio6detail16service_registry17shutdown_servicesEv, symObjAddr: 0xD75C, symBinAddr: 0x10000E52C, symSize: 0x60 }
  - { offset: 0x25D7B, size: 0x8, addend: 0x0, symName: __ZN5boost4asio6detail16service_registry16destroy_servicesEv, symObjAddr: 0xD7BC, symBinAddr: 0x10000E58C, symSize: 0x68 }
  - { offset: 0x25DBF, size: 0x8, addend: 0x0, symName: __ZN5boost4asio6detail16service_registryD2Ev, symObjAddr: 0xD824, symBinAddr: 0x10000E5F4, symSize: 0x38 }
  - { offset: 0x25DEB, size: 0x8, addend: 0x0, symName: __ZN5boost4asio10io_contextD2Ev, symObjAddr: 0xD85C, symBinAddr: 0x10000E62C, symSize: 0x3C }
  - { offset: 0x25E17, size: 0x8, addend: 0x0, symName: __ZN5boost4asio2ip3udpC1Ei, symObjAddr: 0xD898, symBinAddr: 0x10000E668, symSize: 0x34 }
  - { offset: 0x25E4F, size: 0x8, addend: 0x0, symName: __ZN5boost4asio2ip3udpC2Ei, symObjAddr: 0xD8CC, symBinAddr: 0x10000E69C, symSize: 0x20 }
  - { offset: 0x25E87, size: 0x8, addend: 0x0, symName: __ZNSt3__16chrono8durationIxNS_5ratioILl1ELl1EEEEC2B8ne180100IiLi0EEERKT_, symObjAddr: 0xD8EC, symBinAddr: 0x10000E6BC, symSize: 0x24 }
  - { offset: 0x25ECF, size: 0x8, addend: 0x0, symName: __ZNSt3__112basic_stringIcNS_11char_traitsIcEENS_9allocatorIcEEEC2B8ne180100ILi0EEEPKc, symObjAddr: 0xD910, symBinAddr: 0x10000E6E0, symSize: 0x58 }
  - { offset: 0x25F15, size: 0x8, addend: 0x0, symName: __ZNSt3__117__compressed_pairINS_12basic_stringIcNS_11char_traitsIcEENS_9allocatorIcEEE5__repES5_EC1B8ne180100INS_18__default_init_tagESA_EEOT_OT0_, symObjAddr: 0xD968, symBinAddr: 0x10000E738, symSize: 0x3C }
  - { offset: 0x25F6D, size: 0x8, addend: 0x0, symName: __ZNSt3__111char_traitsIcE6lengthB8ne180100EPKc, symObjAddr: 0xD9A4, symBinAddr: 0x10000E774, symSize: 0x34 }
  - { offset: 0x25F90, size: 0x8, addend: 0x0, symName: __ZNSt3__117__compressed_pairINS_12basic_stringIcNS_11char_traitsIcEENS_9allocatorIcEEE5__repES5_EC2B8ne180100INS_18__default_init_tagESA_EEOT_OT0_, symObjAddr: 0xD9D8, symBinAddr: 0x10000E7A8, symSize: 0x3C }
  - { offset: 0x25FE8, size: 0x8, addend: 0x0, symName: __ZNSt3__122__compressed_pair_elemINS_12basic_stringIcNS_11char_traitsIcEENS_9allocatorIcEEE5__repELi0ELb0EEC2B8ne180100ENS_18__default_init_tagE, symObjAddr: 0xDA14, symBinAddr: 0x10000E7E4, symSize: 0x14 }
  - { offset: 0x2601C, size: 0x8, addend: 0x0, symName: __ZNSt3__122__compressed_pair_elemINS_9allocatorIcEELi1ELb1EEC2B8ne180100ENS_18__default_init_tagE, symObjAddr: 0xDA28, symBinAddr: 0x10000E7F8, symSize: 0x2C }
  - { offset: 0x26050, size: 0x8, addend: 0x0, symName: __ZNSt3__19allocatorIcEC2B8ne180100Ev, symObjAddr: 0xDA54, symBinAddr: 0x10000E824, symSize: 0x2C }
  - { offset: 0x2607A, size: 0x8, addend: 0x0, symName: __ZNSt3__116__non_trivial_ifILb1ENS_9allocatorIcEEEC2B8ne180100Ev, symObjAddr: 0xDA80, symBinAddr: 0x10000E850, symSize: 0x14 }
  - { offset: 0x260A4, size: 0x8, addend: 0x0, symName: __ZN5boost4asio2ip7addressC1ERKNS1_10address_v6E, symObjAddr: 0xDC4C, symBinAddr: 0x10000EA1C, symSize: 0x34 }
  - { offset: 0x260DE, size: 0x8, addend: 0x0, symName: __ZN5boost4asio2ip7addressC1ERKNS1_10address_v4E, symObjAddr: 0xDD00, symBinAddr: 0x10000EAD0, symSize: 0x34 }
  - { offset: 0x26118, size: 0x8, addend: 0x0, symName: __ZN5boost4asio2ip7addressC1Ev, symObjAddr: 0xDD34, symBinAddr: 0x10000EB04, symSize: 0x2C }
  - { offset: 0x26144, size: 0x8, addend: 0x0, symName: __ZNSt3__15arrayIhLm16EEixB8ne180100Em, symObjAddr: 0xE070, symBinAddr: 0x10000EE40, symSize: 0x20 }
  - { offset: 0x26178, size: 0x8, addend: 0x0, symName: __ZN5boost4asio2ip10address_v6C1Ev, symObjAddr: 0xE090, symBinAddr: 0x10000EE60, symSize: 0x2C }
  - { offset: 0x261A4, size: 0x8, addend: 0x0, symName: __ZN5boost4asio2ip10address_v6C1ERKNSt3__15arrayIhLm16EEEj, symObjAddr: 0xE0BC, symBinAddr: 0x10000EE8C, symSize: 0x3C }
  - { offset: 0x261EB, size: 0x8, addend: 0x0, symName: __Z6strchrB8ne180100Ua9enable_ifIXLb1EEEPKci, symObjAddr: 0xE110, symBinAddr: 0x10000EEE0, symSize: 0x2C }
  - { offset: 0x2622C, size: 0x8, addend: 0x0, symName: __ZN5boost6system10error_codeaSINS_4asio5error12basic_errorsEEERNSt3__19enable_ifIXsr18is_error_code_enumIT_EE5valueES1_E4typeES8_, symObjAddr: 0xE13C, symBinAddr: 0x10000EF0C, symSize: 0x50 }
  - { offset: 0x26269, size: 0x8, addend: 0x0, symName: __ZN5boost4asio2ip10address_v6C2Ev, symObjAddr: 0xE278, symBinAddr: 0x10000F048, symSize: 0x20 }
  - { offset: 0x26295, size: 0x8, addend: 0x0, symName: __ZN5boost4asio2ip10address_v6C2ERKNSt3__15arrayIhLm16EEEj, symObjAddr: 0xE298, symBinAddr: 0x10000F068, symSize: 0x4C }
  - { offset: 0x262F3, size: 0x8, addend: 0x0, symName: __ZNKSt3__15arrayIhLm16EE4dataB8ne180100Ev, symObjAddr: 0xE2E4, symBinAddr: 0x10000F0B4, symSize: 0x14 }
  - { offset: 0x26319, size: 0x8, addend: 0x0, symName: __ZN5boost4asio2ip7addressC2ERKNS1_10address_v6E, symObjAddr: 0xE2F8, symBinAddr: 0x10000F0C8, symSize: 0x4C }
  - { offset: 0x26353, size: 0x8, addend: 0x0, symName: __ZN5boost4asio2ip10address_v4C1Ev, symObjAddr: 0xE344, symBinAddr: 0x10000F114, symSize: 0x2C }
  - { offset: 0x2637D, size: 0x8, addend: 0x0, symName: __ZN5boost4asio2ip10address_v6C1ERKS2_, symObjAddr: 0xE370, symBinAddr: 0x10000F140, symSize: 0x34 }
  - { offset: 0x263B7, size: 0x8, addend: 0x0, symName: __ZN5boost4asio2ip10address_v4C2Ev, symObjAddr: 0xE3A4, symBinAddr: 0x10000F174, symSize: 0x18 }
  - { offset: 0x263E1, size: 0x8, addend: 0x0, symName: __ZN5boost4asio2ip10address_v6C2ERKS2_, symObjAddr: 0xE3BC, symBinAddr: 0x10000F18C, symSize: 0x30 }
  - { offset: 0x2641B, size: 0x8, addend: 0x0, symName: __ZN5boost4asio2ip10address_v4C1ERKNSt3__15arrayIhLm4EEE, symObjAddr: 0xE3EC, symBinAddr: 0x10000F1BC, symSize: 0x34 }
  - { offset: 0x26455, size: 0x8, addend: 0x0, symName: __ZN5boost4asio2ip10address_v4C2ERKNSt3__15arrayIhLm4EEE, symObjAddr: 0xE420, symBinAddr: 0x10000F1F0, symSize: 0x40 }
  - { offset: 0x264A5, size: 0x8, addend: 0x0, symName: __ZNKSt3__15arrayIhLm4EE4dataB8ne180100Ev, symObjAddr: 0xE460, symBinAddr: 0x10000F230, symSize: 0x14 }
  - { offset: 0x264CB, size: 0x8, addend: 0x0, symName: __ZN5boost4asio2ip7addressC2ERKNS1_10address_v4E, symObjAddr: 0xE474, symBinAddr: 0x10000F244, symSize: 0x48 }
  - { offset: 0x26505, size: 0x8, addend: 0x0, symName: __ZN5boost4asio2ip10address_v4C1ERKS2_, symObjAddr: 0xE4BC, symBinAddr: 0x10000F28C, symSize: 0x34 }
  - { offset: 0x2653D, size: 0x8, addend: 0x0, symName: __ZN5boost4asio2ip10address_v4C2ERKS2_, symObjAddr: 0xE4F0, symBinAddr: 0x10000F2C0, symSize: 0x24 }
  - { offset: 0x26575, size: 0x8, addend: 0x0, symName: __ZN5boost4asio2ip7addressC2Ev, symObjAddr: 0xE514, symBinAddr: 0x10000F2E4, symSize: 0x40 }
  - { offset: 0x265A1, size: 0x8, addend: 0x0, symName: __ZNSt3__117basic_string_viewIcNS_11char_traitsIcEEEC2B8ne180100EPKcm, symObjAddr: 0xE554, symBinAddr: 0x10000F324, symSize: 0x2C }
  - { offset: 0x265E9, size: 0x8, addend: 0x0, symName: __ZNSt3__112basic_stringIcNS_11char_traitsIcEENS_9allocatorIcEEEC2INS_17basic_string_viewIcS2_EELi0EEERKT_, symObjAddr: 0xE580, symBinAddr: 0x10000F350, symSize: 0x70 }
  - { offset: 0x2664F, size: 0x8, addend: 0x0, symName: __ZNKSt3__117basic_string_viewIcNS_11char_traitsIcEEE4dataB8ne180100Ev, symObjAddr: 0xE5F0, symBinAddr: 0x10000F3C0, symSize: 0x18 }
  - { offset: 0x26675, size: 0x8, addend: 0x0, symName: __ZNKSt3__117basic_string_viewIcNS_11char_traitsIcEEE4sizeB8ne180100Ev, symObjAddr: 0xE608, symBinAddr: 0x10000F3D8, symSize: 0x18 }
  - { offset: 0x2669B, size: 0x8, addend: 0x0, symName: __ZN5boost4asio6detail7tss_ptrINS1_10call_stackINS1_14thread_contextENS1_16thread_info_baseEE7contextEEC2Ev, symObjAddr: 0xE6B0, symBinAddr: 0x10000F480, symSize: 0x2C }
  - { offset: 0x266C7, size: 0x8, addend: 0x0, symName: __ZN5boost4asio6detail15keyword_tss_ptrINS1_10call_stackINS1_14thread_contextENS1_16thread_info_baseEE7contextEEC2Ev, symObjAddr: 0xE6DC, symBinAddr: 0x10000F4AC, symSize: 0x2C }
  - { offset: 0x266F1, size: 0x8, addend: 0x0, symName: __ZN5boost4asio6detail7tss_ptrINS1_10call_stackINS1_14thread_contextENS1_16thread_info_baseEE7contextEED2Ev, symObjAddr: 0xE708, symBinAddr: 0x10000F4D8, symSize: 0x2C }
  - { offset: 0x2671D, size: 0x8, addend: 0x0, symName: __ZN5boost4asio6detail15keyword_tss_ptrINS1_10call_stackINS1_14thread_contextENS1_16thread_info_baseEE7contextEED2Ev, symObjAddr: 0xE734, symBinAddr: 0x10000F504, symSize: 0x2C }
  - { offset: 0x26747, size: 0x8, addend: 0x0, symName: __ZN5boost4asio6detail10service_idINS0_14config_serviceEEC2Ev, symObjAddr: 0xE760, symBinAddr: 0x10000F530, symSize: 0x2C }
  - { offset: 0x26774, size: 0x8, addend: 0x0, symName: __ZN5boost4asio17execution_context2idC2Ev, symObjAddr: 0xE78C, symBinAddr: 0x10000F55C, symSize: 0x2C }
  - { offset: 0x2679E, size: 0x8, addend: 0x0, symName: __ZN5boost4asio6detail10service_idINS0_14config_serviceEED2Ev, symObjAddr: 0xE7B8, symBinAddr: 0x10000F588, symSize: 0x2C }
  - { offset: 0x267CB, size: 0x8, addend: 0x0, symName: __ZN5boost4asio17execution_context2idD2Ev, symObjAddr: 0xE7E4, symBinAddr: 0x10000F5B4, symSize: 0x2C }
  - { offset: 0x267F8, size: 0x8, addend: 0x0, symName: __ZN5boost4asio6detail10service_idINS1_9schedulerEEC2Ev, symObjAddr: 0xE810, symBinAddr: 0x10000F5E0, symSize: 0x2C }
  - { offset: 0x26825, size: 0x8, addend: 0x0, symName: __ZN5boost4asio6detail10service_idINS1_9schedulerEED2Ev, symObjAddr: 0xE83C, symBinAddr: 0x10000F60C, symSize: 0x2C }
  - { offset: 0x26852, size: 0x8, addend: 0x0, symName: __ZN5boost4asio6detail10service_idINS1_14kqueue_reactorEEC2Ev, symObjAddr: 0xE868, symBinAddr: 0x10000F638, symSize: 0x2C }
  - { offset: 0x2687F, size: 0x8, addend: 0x0, symName: __ZN5boost4asio6detail10service_idINS1_14kqueue_reactorEED2Ev, symObjAddr: 0xE894, symBinAddr: 0x10000F664, symSize: 0x2C }
  - { offset: 0x268AC, size: 0x8, addend: 0x0, symName: __ZN5boost4asio6detail7tss_ptrINS1_10call_stackINS1_14strand_service11strand_implEhE7contextEEC2Ev, symObjAddr: 0xE8C0, symBinAddr: 0x10000F690, symSize: 0x2C }
  - { offset: 0x268D8, size: 0x8, addend: 0x0, symName: __ZN5boost4asio6detail15keyword_tss_ptrINS1_10call_stackINS1_14strand_service11strand_implEhE7contextEEC2Ev, symObjAddr: 0xE8EC, symBinAddr: 0x10000F6BC, symSize: 0x2C }
  - { offset: 0x26902, size: 0x8, addend: 0x0, symName: __ZN5boost4asio6detail7tss_ptrINS1_10call_stackINS1_14strand_service11strand_implEhE7contextEED2Ev, symObjAddr: 0xE918, symBinAddr: 0x10000F6E8, symSize: 0x2C }
  - { offset: 0x2692E, size: 0x8, addend: 0x0, symName: __ZN5boost4asio6detail15keyword_tss_ptrINS1_10call_stackINS1_14strand_service11strand_implEhE7contextEED2Ev, symObjAddr: 0xE944, symBinAddr: 0x10000F714, symSize: 0x2C }
  - { offset: 0x26958, size: 0x8, addend: 0x0, symName: __ZN5boost4asio6detail10service_idINS1_14strand_serviceEEC2Ev, symObjAddr: 0xE970, symBinAddr: 0x10000F740, symSize: 0x2C }
  - { offset: 0x26985, size: 0x8, addend: 0x0, symName: __ZN5boost4asio6detail10service_idINS1_14strand_serviceEED2Ev, symObjAddr: 0xE99C, symBinAddr: 0x10000F76C, symSize: 0x2C }
  - { offset: 0x269B2, size: 0x8, addend: 0x0, symName: __ZNK5boost4asio2ip7address9to_stringEv, symObjAddr: 0xE9C8, symBinAddr: 0x10000F798, symSize: 0x68 }
  - { offset: 0x269DA, size: 0x8, addend: 0x0, symName: __ZNK5boost4asio2ip10address_v69to_stringEv, symObjAddr: 0xEA30, symBinAddr: 0x10000F800, symSize: 0xDC }
  - { offset: 0x26A30, size: 0x8, addend: 0x0, symName: __ZNK5boost4asio2ip10address_v49to_stringEv, symObjAddr: 0xEB0C, symBinAddr: 0x10000F8DC, symSize: 0xD8 }
  - { offset: 0x26AA7, size: 0x8, addend: 0x0, symName: __ZNKSt3__113basic_ostreamIcNS_11char_traitsIcEEE6sentrycvbB8ne180100Ev, symObjAddr: 0xF010, symBinAddr: 0x10000FDE0, symSize: 0x1C }
  - { offset: 0x26ACD, size: 0x8, addend: 0x0, symName: __ZNSt3__119ostreambuf_iteratorIcNS_11char_traitsIcEEEC1B8ne180100ERNS_13basic_ostreamIcS2_EE, symObjAddr: 0xF26C, symBinAddr: 0x10001003C, symSize: 0x34 }
  - { offset: 0x26B05, size: 0x8, addend: 0x0, symName: __ZNKSt3__18ios_base5flagsB8ne180100Ev, symObjAddr: 0xF2A0, symBinAddr: 0x100010070, symSize: 0x18 }
  - { offset: 0x26B2D, size: 0x8, addend: 0x0, symName: __ZNKSt3__19basic_iosIcNS_11char_traitsIcEEE4fillB8ne180100Ev, symObjAddr: 0xF2B8, symBinAddr: 0x100010088, symSize: 0x64 }
  - { offset: 0x26B55, size: 0x8, addend: 0x0, symName: __ZNKSt3__119ostreambuf_iteratorIcNS_11char_traitsIcEEE6failedB8ne180100Ev, symObjAddr: 0xF31C, symBinAddr: 0x1000100EC, symSize: 0x24 }
  - { offset: 0x26B7B, size: 0x8, addend: 0x0, symName: __ZNSt3__19basic_iosIcNS_11char_traitsIcEEE8setstateB8ne180100Ej, symObjAddr: 0xF340, symBinAddr: 0x100010110, symSize: 0x2C }
  - { offset: 0x26BB0, size: 0x8, addend: 0x0, symName: __ZNKSt3__18ios_base5widthB8ne180100Ev, symObjAddr: 0xF36C, symBinAddr: 0x10001013C, symSize: 0x18 }
  - { offset: 0x26BD8, size: 0x8, addend: 0x0, symName: __ZNSt3__115basic_streambufIcNS_11char_traitsIcEEE5sputnB8ne180100EPKcl, symObjAddr: 0xF384, symBinAddr: 0x100010154, symSize: 0x3C }
  - { offset: 0x26C1A, size: 0x8, addend: 0x0, symName: __ZNSt3__112basic_stringIcNS_11char_traitsIcEENS_9allocatorIcEEEC1B8ne180100Emc, symObjAddr: 0xF3C0, symBinAddr: 0x100010190, symSize: 0x3C }
  - { offset: 0x26C62, size: 0x8, addend: 0x0, symName: __ZNSt3__112basic_stringIcNS_11char_traitsIcEENS_9allocatorIcEEE4dataB8ne180100Ev, symObjAddr: 0xF3FC, symBinAddr: 0x1000101CC, symSize: 0x28 }
  - { offset: 0x26C88, size: 0x8, addend: 0x0, symName: __ZNSt3__18ios_base5widthB8ne180100El, symObjAddr: 0xF424, symBinAddr: 0x1000101F4, symSize: 0x2C }
  - { offset: 0x26CCE, size: 0x8, addend: 0x0, symName: __ZNSt3__112basic_stringIcNS_11char_traitsIcEENS_9allocatorIcEEEC2B8ne180100Emc, symObjAddr: 0xF450, symBinAddr: 0x100010220, symSize: 0x4C }
  - { offset: 0x26D16, size: 0x8, addend: 0x0, symName: __ZNSt3__112basic_stringIcNS_11char_traitsIcEENS_9allocatorIcEEE13__get_pointerB8ne180100Ev, symObjAddr: 0xF4B0, symBinAddr: 0x100010280, symSize: 0x54 }
  - { offset: 0x26D3C, size: 0x8, addend: 0x0, symName: __ZNSt3__112basic_stringIcNS_11char_traitsIcEENS_9allocatorIcEEE18__get_long_pointerB8ne180100Ev, symObjAddr: 0xF504, symBinAddr: 0x1000102D4, symSize: 0x28 }
  - { offset: 0x26D62, size: 0x8, addend: 0x0, symName: __ZNSt3__112basic_stringIcNS_11char_traitsIcEENS_9allocatorIcEEE19__get_short_pointerB8ne180100Ev, symObjAddr: 0xF52C, symBinAddr: 0x1000102FC, symSize: 0x28 }
  - { offset: 0x26D88, size: 0x8, addend: 0x0, symName: __ZNSt3__114pointer_traitsIPcE10pointer_toB8ne180100ERc, symObjAddr: 0xF554, symBinAddr: 0x100010324, symSize: 0x14 }
  - { offset: 0x26DAB, size: 0x8, addend: 0x0, symName: __ZNSt3__119ostreambuf_iteratorIcNS_11char_traitsIcEEEC2B8ne180100ERNS_13basic_ostreamIcS2_EE, symObjAddr: 0xF568, symBinAddr: 0x100010338, symSize: 0x54 }
  - { offset: 0x26DE3, size: 0x8, addend: 0x0, symName: __ZNKSt3__19basic_iosIcNS_11char_traitsIcEEE5rdbufB8ne180100Ev, symObjAddr: 0xF5BC, symBinAddr: 0x10001038C, symSize: 0x24 }
  - { offset: 0x26E0B, size: 0x8, addend: 0x0, symName: __ZNKSt3__18ios_base5rdbufB8ne180100Ev, symObjAddr: 0xF5E0, symBinAddr: 0x1000103B0, symSize: 0x18 }
  - { offset: 0x26E31, size: 0x8, addend: 0x0, symName: __ZNSt3__111char_traitsIcE11eq_int_typeB8ne180100Eii, symObjAddr: 0xF5F8, symBinAddr: 0x1000103C8, symSize: 0x28 }
  - { offset: 0x26E64, size: 0x8, addend: 0x0, symName: __ZNSt3__111char_traitsIcE3eofB8ne180100Ev, symObjAddr: 0xF620, symBinAddr: 0x1000103F0, symSize: 0x8 }
  - { offset: 0x26E78, size: 0x8, addend: 0x0, symName: __ZNKSt3__19basic_iosIcNS_11char_traitsIcEEE5widenB8ne180100Ec, symObjAddr: 0xF628, symBinAddr: 0x1000103F8, symSize: 0x84 }
  - { offset: 0x26EEB, size: 0x8, addend: 0x0, symName: __ZNKSt3__15ctypeIcE5widenB8ne180100Ec, symObjAddr: 0xF6D8, symBinAddr: 0x1000104A8, symSize: 0x38 }
  - { offset: 0x26F20, size: 0x8, addend: 0x0, symName: __ZNSt3__18ios_base8setstateB8ne180100Ej, symObjAddr: 0xF710, symBinAddr: 0x1000104E0, symSize: 0x34 }
  - { offset: 0x26F57, size: 0x8, addend: 0x0, symName: __ZN5boost4asio6detail7tss_ptrINS1_10call_stackINS1_23strand_executor_service11strand_implEhE7contextEEC2Ev, symObjAddr: 0xF744, symBinAddr: 0x100010514, symSize: 0x2C }
  - { offset: 0x26F83, size: 0x8, addend: 0x0, symName: __ZN5boost4asio6detail15keyword_tss_ptrINS1_10call_stackINS1_23strand_executor_service11strand_implEhE7contextEEC2Ev, symObjAddr: 0xF770, symBinAddr: 0x100010540, symSize: 0x2C }
  - { offset: 0x26FAD, size: 0x8, addend: 0x0, symName: __ZN5boost4asio6detail7tss_ptrINS1_10call_stackINS1_23strand_executor_service11strand_implEhE7contextEED2Ev, symObjAddr: 0xF79C, symBinAddr: 0x10001056C, symSize: 0x2C }
  - { offset: 0x26FD9, size: 0x8, addend: 0x0, symName: __ZN5boost4asio6detail15keyword_tss_ptrINS1_10call_stackINS1_23strand_executor_service11strand_implEhE7contextEED2Ev, symObjAddr: 0xF7C8, symBinAddr: 0x100010598, symSize: 0x2C }
  - { offset: 0x27003, size: 0x8, addend: 0x0, symName: __ZN5boost4asio6detail17posix_global_implINS0_14system_contextEED2Ev, symObjAddr: 0xF7F4, symBinAddr: 0x1000105C4, symSize: 0x5C }
  - { offset: 0x2702D, size: 0x8, addend: 0x0, symName: __ZN5boost4asio14system_contextD1Ev, symObjAddr: 0xF850, symBinAddr: 0x100010620, symSize: 0x2C }
  - { offset: 0x27059, size: 0x8, addend: 0x0, symName: __ZN5boost4asio14system_contextD2Ev, symObjAddr: 0xF87C, symBinAddr: 0x10001064C, symSize: 0x6C }
  - { offset: 0x27085, size: 0x8, addend: 0x0, symName: __ZN5boost4asio6detail12thread_group4joinEv, symObjAddr: 0xF8E8, symBinAddr: 0x1000106B8, symSize: 0x94 }
  - { offset: 0x270C7, size: 0x8, addend: 0x0, symName: __ZN5boost4asio6detail12thread_groupD1Ev, symObjAddr: 0xF97C, symBinAddr: 0x10001074C, symSize: 0x2C }
  - { offset: 0x270F7, size: 0x8, addend: 0x0, symName: __ZN5boost4asio6detail12thread_group4itemD1Ev, symObjAddr: 0xF9A8, symBinAddr: 0x100010778, symSize: 0x2C }
  - { offset: 0x27123, size: 0x8, addend: 0x0, symName: __ZN5boost4asio6detail12thread_group4itemD2Ev, symObjAddr: 0xF9D4, symBinAddr: 0x1000107A4, symSize: 0x2C }
  - { offset: 0x2714F, size: 0x8, addend: 0x0, symName: __ZN5boost4asio6detail12thread_groupD2Ev, symObjAddr: 0xFA00, symBinAddr: 0x1000107D0, symSize: 0x34 }
  - { offset: 0x27179, size: 0x8, addend: 0x0, symName: __ZN5boost4asio2ip14basic_endpointINS1_3udpEEC2ERKS3_t, symObjAddr: 0xFA34, symBinAddr: 0x100010804, symSize: 0x48 }
  - { offset: 0x271BF, size: 0x8, addend: 0x0, symName: __ZNK5boost4asio2ip3udp6familyEv, symObjAddr: 0xFA7C, symBinAddr: 0x10001084C, symSize: 0x18 }
  - { offset: 0x271E5, size: 0x8, addend: 0x0, symName: __ZN5boost4asio2ip6detail8endpointC1Eit, symObjAddr: 0xFA94, symBinAddr: 0x100010864, symSize: 0x3C }
  - { offset: 0x2722D, size: 0x8, addend: 0x0, symName: __ZN5boost4asio2ip6detail8endpointC2Eit, symObjAddr: 0xFAD0, symBinAddr: 0x1000108A0, symSize: 0x104 }
  - { offset: 0x27283, size: 0x8, addend: 0x0, symName: __ZL12_OSSwapInt16t, symObjAddr: 0xFC0C, symBinAddr: 0x1000109DC, symSize: 0x24 }
  - { offset: 0x272B0, size: 0x8, addend: 0x0, symName: __ZN5boost4asio21basic_datagram_socketINS0_2ip3udpENS0_15any_io_executorEEC2INS0_10io_contextEEERT_RKNS2_14basic_endpointIS3_EENS0_10constraintIXsr14is_convertibleIS9_RNS0_17execution_contextEEE5valueEiE4typeE, symObjAddr: 0xFC30, symBinAddr: 0x100010A00, symSize: 0x44 }
  - { offset: 0x27309, size: 0x8, addend: 0x0, symName: __ZN5boost4asio12basic_socketINS0_2ip3udpENS0_15any_io_executorEEC2INS0_10io_contextEEERT_RKNS2_14basic_endpointIS3_EENS0_10constraintIXsr14is_convertibleIS9_RNS0_17execution_contextEEE5valueEiE4typeE, symObjAddr: 0xFC74, symBinAddr: 0x100010A44, symSize: 0x188 }
  - { offset: 0x27386, size: 0x8, addend: 0x0, symName: __ZN5boost4asio6detail14io_object_implINS1_23reactive_socket_serviceINS0_2ip3udpEEENS0_15any_io_executorEEC1INS0_10io_contextEEEiiRT_, symObjAddr: 0xFDFC, symBinAddr: 0x100010BCC, symSize: 0x44 }
  - { offset: 0x273DB, size: 0x8, addend: 0x0, symName: __ZNK5boost4asio2ip14basic_endpointINS1_3udpEE8protocolEv, symObjAddr: 0xFE40, symBinAddr: 0x100010C10, symSize: 0x48 }
  - { offset: 0x27401, size: 0x8, addend: 0x0, symName: __ZN5boost4asio6detail14io_object_implINS1_23reactive_socket_serviceINS0_2ip3udpEEENS0_15any_io_executorEE11get_serviceEv, symObjAddr: 0xFE88, symBinAddr: 0x100010C58, symSize: 0x18 }
  - { offset: 0x27427, size: 0x8, addend: 0x0, symName: __ZN5boost4asio6detail14io_object_implINS1_23reactive_socket_serviceINS0_2ip3udpEEENS0_15any_io_executorEE18get_implementationEv, symObjAddr: 0xFF7C, symBinAddr: 0x100010D4C, symSize: 0x18 }
  - { offset: 0x2744D, size: 0x8, addend: 0x0, symName: __ZN5boost4asio6detail14io_object_implINS1_23reactive_socket_serviceINS0_2ip3udpEEENS0_15any_io_executorEED1Ev, symObjAddr: 0x10028, symBinAddr: 0x100010DF8, symSize: 0x2C }
  - { offset: 0x27477, size: 0x8, addend: 0x0, symName: __ZN5boost4asio11socket_baseD2Ev, symObjAddr: 0x10054, symBinAddr: 0x100010E24, symSize: 0x14 }
  - { offset: 0x274A1, size: 0x8, addend: 0x0, symName: __ZN5boost4asio6detail14io_object_implINS1_23reactive_socket_serviceINS0_2ip3udpEEENS0_15any_io_executorEEC2INS0_10io_contextEEEiiRT_, symObjAddr: 0x10068, symBinAddr: 0x100010E38, symSize: 0xD0 }
  - { offset: 0x274F6, size: 0x8, addend: 0x0, symName: __ZN5boost4asio6detail23reactive_socket_serviceINS0_2ip3udpEE19implementation_typeC1Ev, symObjAddr: 0x10164, symBinAddr: 0x100010F34, symSize: 0x2C }
  - { offset: 0x27520, size: 0x8, addend: 0x0, symName: __ZN5boost4asio10io_context12get_executorEv, symObjAddr: 0x10190, symBinAddr: 0x100010F60, symSize: 0x38 }
  - { offset: 0x27548, size: 0x8, addend: 0x0, symName: __ZN5boost4asio15any_io_executorC1INS0_10io_context19basic_executor_typeINSt3__19allocatorIvEELm0EEEEET_NS0_10constraintIXsr13conditional_tIXaantsr7is_sameIS9_S1_EE5valuentsr10is_base_ofINS0_9execution6detail17any_executor_baseES9_EE5valueENSC_24is_valid_target_executorIS9_FvNSB_12context_as_tIRNS0_17execution_contextEEENSC_8blocking7never_tILi0EEENSB_11prefer_onlyINSJ_10possibly_tILi0EEEEENSM_INSC_16outstanding_work9tracked_tILi0EEEEENSM_INSQ_11untracked_tILi0EEEEENSM_INSC_12relationship6fork_tILi0EEEEENSM_INSX_14continuation_tILi0EEEEEEEENS5_17integral_constantIbLb0EEEEE5valueEiE4typeE, symObjAddr: 0x101C8, symBinAddr: 0x100010F98, symSize: 0x3C }
  - { offset: 0x27594, size: 0x8, addend: 0x0, symName: __ZN5boost4asio10io_context19basic_executor_typeINSt3__19allocatorIvEELm0EED1Ev, symObjAddr: 0x10204, symBinAddr: 0x100010FD4, symSize: 0x2C }
  - { offset: 0x275BE, size: 0x8, addend: 0x0, symName: __ZN5boost4asio6detail28reactive_socket_service_base9constructERNS2_24base_implementation_typeE, symObjAddr: 0x10230, symBinAddr: 0x100011000, symSize: 0x30 }
  - { offset: 0x275F4, size: 0x8, addend: 0x0, symName: __ZN5boost4asio15any_io_executorD1Ev, symObjAddr: 0x10260, symBinAddr: 0x100011030, symSize: 0x2C }
  - { offset: 0x27626, size: 0x8, addend: 0x0, symName: __ZN5boost4asio6detail16service_registry11use_serviceINS1_23reactive_socket_serviceINS0_2ip3udpEEEEERT_RNS0_10io_contextE, symObjAddr: 0x1028C, symBinAddr: 0x10001105C, symSize: 0x64 }
  - { offset: 0x2767F, size: 0x8, addend: 0x0, symName: __ZN5boost4asio6detail16service_registry8init_keyINS1_23reactive_socket_serviceINS0_2ip3udpEEEEEvRNS0_17execution_context7service3keyEz, symObjAddr: 0x102F0, symBinAddr: 0x1000110C0, symSize: 0x2C }
  - { offset: 0x276AE, size: 0x8, addend: 0x0, symName: __ZN5boost4asio6detail16service_registry6createINS1_23reactive_socket_serviceINS0_2ip3udpEEENS0_10io_contextEEEPNS0_17execution_context7serviceEPv, symObjAddr: 0x1031C, symBinAddr: 0x1000110EC, symSize: 0x5C }
  - { offset: 0x276F1, size: 0x8, addend: 0x0, symName: __ZN5boost4asio6detail16service_registry16init_key_from_idINS1_23reactive_socket_serviceINS0_2ip3udpEEEEEvRNS0_17execution_context7service3keyERKNS1_10service_idIT_EE, symObjAddr: 0x10378, symBinAddr: 0x100011148, symSize: 0x2C }
  - { offset: 0x27729, size: 0x8, addend: 0x0, symName: __ZN5boost4asio6detail23reactive_socket_serviceINS0_2ip3udpEEC1ERNS0_17execution_contextE, symObjAddr: 0x103A4, symBinAddr: 0x100011174, symSize: 0x34 }
  - { offset: 0x27761, size: 0x8, addend: 0x0, symName: __ZN5boost4asio6detail23reactive_socket_serviceINS0_2ip3udpEEC2ERNS0_17execution_contextE, symObjAddr: 0x103D8, symBinAddr: 0x1000111A8, symSize: 0x7C }
  - { offset: 0x27799, size: 0x8, addend: 0x0, symName: __ZN5boost4asio6detail30execution_context_service_baseINS1_23reactive_socket_serviceINS0_2ip3udpEEEEC2ERNS0_17execution_contextE, symObjAddr: 0x10454, symBinAddr: 0x100011224, symSize: 0x44 }
  - { offset: 0x277D2, size: 0x8, addend: 0x0, symName: __ZN5boost4asio6detail28reactive_socket_service_baseC2ERNS0_17execution_contextE, symObjAddr: 0x10498, symBinAddr: 0x100011268, symSize: 0x50 }
  - { offset: 0x2780C, size: 0x8, addend: 0x0, symName: __ZN5boost4asio6detail30execution_context_service_baseINS1_23reactive_socket_serviceINS0_2ip3udpEEEED2Ev, symObjAddr: 0x104E8, symBinAddr: 0x1000112B8, symSize: 0x2C }
  - { offset: 0x27839, size: 0x8, addend: 0x0, symName: __ZN5boost4asio6detail23reactive_socket_serviceINS0_2ip3udpEED1Ev, symObjAddr: 0x10514, symBinAddr: 0x1000112E4, symSize: 0x2C }
  - { offset: 0x27865, size: 0x8, addend: 0x0, symName: __ZN5boost4asio6detail23reactive_socket_serviceINS0_2ip3udpEED0Ev, symObjAddr: 0x10540, symBinAddr: 0x100011310, symSize: 0x30 }
  - { offset: 0x27891, size: 0x8, addend: 0x0, symName: __ZN5boost4asio6detail23reactive_socket_serviceINS0_2ip3udpEE8shutdownEv, symObjAddr: 0x10570, symBinAddr: 0x100011340, symSize: 0x28 }
  - { offset: 0x278B7, size: 0x8, addend: 0x0, symName: __ZN5boost4asio6detail30execution_context_service_baseINS1_23reactive_socket_serviceINS0_2ip3udpEEEED1Ev, symObjAddr: 0x10598, symBinAddr: 0x100011368, symSize: 0x14 }
  - { offset: 0x278E4, size: 0x8, addend: 0x0, symName: __ZN5boost4asio6detail30execution_context_service_baseINS1_23reactive_socket_serviceINS0_2ip3udpEEEED0Ev, symObjAddr: 0x105AC, symBinAddr: 0x10001137C, symSize: 0xC }
  - { offset: 0x27911, size: 0x8, addend: 0x0, symName: __ZN5boost4asio6detail14kqueue_reactor9init_taskEv, symObjAddr: 0x105B8, symBinAddr: 0x100011388, symSize: 0x28 }
  - { offset: 0x27939, size: 0x8, addend: 0x0, symName: __ZN5boost4asio6detail9scheduler9init_taskEv, symObjAddr: 0x105E0, symBinAddr: 0x1000113B0, symSize: 0xCC }
  - { offset: 0x2796F, size: 0x8, addend: 0x0, symName: __ZN5boost4asio6detail23reactive_socket_serviceINS0_2ip3udpEED2Ev, symObjAddr: 0x106AC, symBinAddr: 0x10001147C, symSize: 0x2C }
  - { offset: 0x2799B, size: 0x8, addend: 0x0, symName: __ZN5boost4asio6detail28reactive_socket_service_base13base_shutdownEv, symObjAddr: 0x106D8, symBinAddr: 0x1000114A8, symSize: 0x10 }
  - { offset: 0x279C3, size: 0x8, addend: 0x0, symName: __ZN5boost4asio6detail23reactive_socket_serviceINS0_2ip3udpEE19implementation_typeC2Ev, symObjAddr: 0x106E8, symBinAddr: 0x1000114B8, symSize: 0x44 }
  - { offset: 0x279ED, size: 0x8, addend: 0x0, symName: __ZN5boost4asio2ip14basic_endpointINS1_3udpEEC1Ev, symObjAddr: 0x1072C, symBinAddr: 0x1000114FC, symSize: 0x2C }
  - { offset: 0x27A17, size: 0x8, addend: 0x0, symName: __ZN5boost4asio2ip14basic_endpointINS1_3udpEEC2Ev, symObjAddr: 0x10758, symBinAddr: 0x100011528, symSize: 0x2C }
  - { offset: 0x27A41, size: 0x8, addend: 0x0, symName: __ZN5boost4asio2ip6detail8endpointC1Ev, symObjAddr: 0x10784, symBinAddr: 0x100011554, symSize: 0x2C }
  - { offset: 0x27A6D, size: 0x8, addend: 0x0, symName: __ZN5boost4asio2ip6detail8endpointC2Ev, symObjAddr: 0x107B0, symBinAddr: 0x100011580, symSize: 0x34 }
  - { offset: 0x27A99, size: 0x8, addend: 0x0, symName: __ZN5boost4asio10io_context19basic_executor_typeINSt3__19allocatorIvEELm0EEC1ERS1_, symObjAddr: 0x107E4, symBinAddr: 0x1000115B4, symSize: 0x34 }
  - { offset: 0x27AD2, size: 0x8, addend: 0x0, symName: __ZN5boost4asio10io_context19basic_executor_typeINSt3__19allocatorIvEELm0EEC2ERS1_, symObjAddr: 0x10818, symBinAddr: 0x1000115E8, symSize: 0x20 }
  - { offset: 0x27B0B, size: 0x8, addend: 0x0, symName: __ZN5boost4asio15any_io_executorC2INS0_10io_context19basic_executor_typeINSt3__19allocatorIvEELm0EEEEET_NS0_10constraintIXsr13conditional_tIXaantsr7is_sameIS9_S1_EE5valuentsr10is_base_ofINS0_9execution6detail17any_executor_baseES9_EE5valueENSC_24is_valid_target_executorIS9_FvNSB_12context_as_tIRNS0_17execution_contextEEENSC_8blocking7never_tILi0EEENSB_11prefer_onlyINSJ_10possibly_tILi0EEEEENSM_INSC_16outstanding_work9tracked_tILi0EEEEENSM_INSQ_11untracked_tILi0EEEEENSM_INSC_12relationship6fork_tILi0EEEEENSM_INSX_14continuation_tILi0EEEEEEEENS5_17integral_constantIbLb0EEEEE5valueEiE4typeE, symObjAddr: 0x10838, symBinAddr: 0x100011608, symSize: 0x7C }
  - { offset: 0x27B57, size: 0x8, addend: 0x0, symName: __ZN5boost4asio10io_context19basic_executor_typeINSt3__19allocatorIvEELm0EEC1EOS6_, symObjAddr: 0x108B4, symBinAddr: 0x100011684, symSize: 0x34 }
  - { offset: 0x27B96, size: 0x8, addend: 0x0, symName: __ZN5boost4asio9execution12any_executorIJNS1_12context_as_tIRNS0_17execution_contextEEENS1_6detail8blocking7never_tILi0EEENS1_11prefer_onlyINS8_10possibly_tILi0EEEEENSB_INS7_16outstanding_work9tracked_tILi0EEEEENSB_INSF_11untracked_tILi0EEEEENSB_INS7_12relationship6fork_tILi0EEEEENSB_INSM_14continuation_tILi0EEEEEEEC2INS0_10io_context19basic_executor_typeINSt3__19allocatorIvEELm0EEEEET_PNSX_9enable_ifIXsr13conditional_tIXaantsr7is_sameIS11_ST_EE5valuentsr10is_base_ofINS7_17any_executor_baseES11_EE5valueENS7_24is_valid_target_executorIS11_FvS6_SA_SE_SI_SL_SP_SS_EEENSX_17integral_constantIbLb0EEEEE5valueEvE4typeE, symObjAddr: 0x108E8, symBinAddr: 0x1000116B8, symSize: 0xA8 }
  - { offset: 0x27BE4, size: 0x8, addend: 0x0, symName: __ZN5boost4asio10io_context19basic_executor_typeINSt3__19allocatorIvEELm0EEC2EOS6_, symObjAddr: 0x10990, symBinAddr: 0x100011760, symSize: 0x24 }
  - { offset: 0x27C1D, size: 0x8, addend: 0x0, symName: __ZN5boost4asio9execution6detail17any_executor_baseC2INS0_10io_context19basic_executor_typeINSt3__19allocatorIvEELm0EEEEET_NS7_17integral_constantIbLb0EEE, symObjAddr: 0x109B4, symBinAddr: 0x100011784, symSize: 0x84 }
  - { offset: 0x27C6B, size: 0x8, addend: 0x0, symName: __ZN5boost4asio9execution6detail17any_executor_baseD2Ev, symObjAddr: 0x10A44, symBinAddr: 0x100011814, symSize: 0x58 }
  - { offset: 0x27C95, size: 0x8, addend: 0x0, symName: __ZN5boost4asio9execution6detail17any_executor_base14query_blockingINS0_10io_context19basic_executor_typeINSt3__19allocatorIvEELm0EEEEENS2_10blocking_tILi0EEERKT_NS7_17integral_constantIbLb1EEE, symObjAddr: 0x10B08, symBinAddr: 0x1000118D8, symSize: 0x3C }
  - { offset: 0x27CCD, size: 0x8, addend: 0x0, symName: __ZN5boost4asio9execution6detail10blocking_tILi0EEC1ENS2_8blocking8always_tILi0EEE, symObjAddr: 0x10B44, symBinAddr: 0x100011914, symSize: 0x2C }
  - { offset: 0x27D01, size: 0x8, addend: 0x0, symName: __ZN5boost4asio9execution6detail17any_executor_base16construct_objectINS0_10io_context19basic_executor_typeINSt3__19allocatorIvEELm0EEEEEvRT_NS7_17integral_constantIbLb1EEE, symObjAddr: 0x10B70, symBinAddr: 0x100011940, symSize: 0x50 }
  - { offset: 0x27D4A, size: 0x8, addend: 0x0, symName: __ZN5boost4asio9execution6detail17any_executor_base14target_type_exINS0_10io_context19basic_executor_typeINSt3__19allocatorIvEELm0EEEEERKSt9type_infov, symObjAddr: 0x10BC0, symBinAddr: 0x100011990, symSize: 0xC }
  - { offset: 0x27D68, size: 0x8, addend: 0x0, symName: __ZN5boost4asio9execution6detail17any_executor_base8equal_exINS0_10io_context19basic_executor_typeINSt3__19allocatorIvEELm0EEEEEbRKS3_SC_, symObjAddr: 0x10BCC, symBinAddr: 0x10001199C, symSize: 0x60 }
  - { offset: 0x27DC2, size: 0x8, addend: 0x0, symName: __ZN5boost4asio9execution6detail17any_executor_base10execute_exINS0_10io_context19basic_executor_typeINSt3__19allocatorIvEELm0EEEEEvRKS3_ONS0_6detail17executor_functionE, symObjAddr: 0x10C2C, symBinAddr: 0x1000119FC, symSize: 0x38 }
  - { offset: 0x27E0D, size: 0x8, addend: 0x0, symName: __ZN5boost4asio9execution6detail17any_executor_base19blocking_execute_exINS0_10io_context19basic_executor_typeINSt3__19allocatorIvEELm0EEEEEvRKS3_NS0_6detail22executor_function_viewE, symObjAddr: 0x10C64, symBinAddr: 0x100011A34, symSize: 0x44 }
  - { offset: 0x27E58, size: 0x8, addend: 0x0, symName: __ZNK5boost4asio9execution6detail17any_executor_base6targetINS0_10io_context19basic_executor_typeINSt3__19allocatorIvEELm0EEEEEPKT_v, symObjAddr: 0x10CA8, symBinAddr: 0x100011A78, symSize: 0x84 }
  - { offset: 0x27E87, size: 0x8, addend: 0x0, symName: __ZNK5boost4asio10io_context19basic_executor_typeINSt3__19allocatorIvEELm0EE7executeINS0_6detail17executor_functionEEEvOT_, symObjAddr: 0x10DAC, symBinAddr: 0x100011B7C, symSize: 0x1F0 }
  - { offset: 0x27F08, size: 0x8, addend: 0x0, symName: __ZNK5boost4asio10io_context19basic_executor_typeINSt3__19allocatorIvEELm0EE4bitsEv, symObjAddr: 0x10F9C, symBinAddr: 0x100011D6C, symSize: 0x1C }
  - { offset: 0x27F2E, size: 0x8, addend: 0x0, symName: __ZNK5boost4asio10io_context19basic_executor_typeINSt3__19allocatorIvEELm0EE11context_ptrEv, symObjAddr: 0x10FB8, symBinAddr: 0x100011D88, symSize: 0x1C }
  - { offset: 0x27F54, size: 0x8, addend: 0x0, symName: __ZN5boost4asio6detail9scheduler12can_dispatchEv, symObjAddr: 0x10FD4, symBinAddr: 0x100011DA4, symSize: 0x30 }
  - { offset: 0x27F7D, size: 0x8, addend: 0x0, symName: __ZN5boost4asio6detail17executor_functionC1EOS2_, symObjAddr: 0x11004, symBinAddr: 0x100011DD4, symSize: 0x34 }
  - { offset: 0x27FB5, size: 0x8, addend: 0x0, symName: __ZN5boost4asio6detail16std_fenced_blockC1ENS2_6full_tE, symObjAddr: 0x11038, symBinAddr: 0x100011E08, symSize: 0x34 }
  - { offset: 0x27FE9, size: 0x8, addend: 0x0, symName: __ZN5boost4asio6detail17executor_functionclEv, symObjAddr: 0x1106C, symBinAddr: 0x100011E3C, symSize: 0x64 }
  - { offset: 0x2802B, size: 0x8, addend: 0x0, symName: __ZN5boost4asio6detail16std_fenced_blockD1Ev, symObjAddr: 0x110D0, symBinAddr: 0x100011EA0, symSize: 0x2C }
  - { offset: 0x28055, size: 0x8, addend: 0x0, symName: __ZN5boost4asio6detail9scheduler25capture_current_exceptionEv, symObjAddr: 0x110FC, symBinAddr: 0x100011ECC, symSize: 0x48 }
  - { offset: 0x28093, size: 0x8, addend: 0x0, symName: __ZN5boost4asio6detail17executor_functionD1Ev, symObjAddr: 0x11144, symBinAddr: 0x100011F14, symSize: 0x2C }
  - { offset: 0x280C9, size: 0x8, addend: 0x0, symName: __ZN5boost4asio6detail11executor_opINS1_17executor_functionENSt3__19allocatorIvEENS1_19scheduler_operationEE3ptr8allocateERKS6_, symObjAddr: 0x11170, symBinAddr: 0x100011F40, symSize: 0x40 }
  - { offset: 0x28100, size: 0x8, addend: 0x0, symName: __ZN5boost4asio6detail11executor_opINS1_17executor_functionENSt3__19allocatorIvEENS1_19scheduler_operationEEC1IS3_EEOT_RKS6_, symObjAddr: 0x111B0, symBinAddr: 0x100011F80, symSize: 0x3C }
  - { offset: 0x2814F, size: 0x8, addend: 0x0, symName: __ZN5boost4asio6detail9scheduler25post_immediate_completionEPNS1_19scheduler_operationEb, symObjAddr: 0x111EC, symBinAddr: 0x100011FBC, symSize: 0xFC }
  - { offset: 0x281BA, size: 0x8, addend: 0x0, symName: __ZN5boost4asio6detail11executor_opINS1_17executor_functionENSt3__19allocatorIvEENS1_19scheduler_operationEE3ptrD1Ev, symObjAddr: 0x112E8, symBinAddr: 0x1000120B8, symSize: 0x2C }
  - { offset: 0x281E4, size: 0x8, addend: 0x0, symName: __ZN5boost4asio6detail10call_stackINS1_14thread_contextENS1_16thread_info_baseEE8containsEPS3_, symObjAddr: 0x11314, symBinAddr: 0x1000120E4, symSize: 0x8C }
  - { offset: 0x28215, size: 0x8, addend: 0x0, symName: __ZN5boost4asio6detail17executor_functionC2EOS2_, symObjAddr: 0x113A0, symBinAddr: 0x100012170, symSize: 0x2C }
  - { offset: 0x2824D, size: 0x8, addend: 0x0, symName: __ZN5boost4asio6detail16std_fenced_blockC2ENS2_6full_tE, symObjAddr: 0x113CC, symBinAddr: 0x10001219C, symSize: 0x38 }
  - { offset: 0x28281, size: 0x8, addend: 0x0, symName: __ZN5boost4asio6detail16std_fenced_blockD2Ev, symObjAddr: 0x114A4, symBinAddr: 0x100012274, symSize: 0x38 }
  - { offset: 0x282AB, size: 0x8, addend: 0x0, symName: __ZN5boost4asio6detail16thread_info_base25capture_current_exceptionEv, symObjAddr: 0x114DC, symBinAddr: 0x1000122AC, symSize: 0xF0 }
  - { offset: 0x282D1, size: 0x8, addend: 0x0, symName: __ZN5boost4asio19multiple_exceptionsC1ESt13exception_ptr, symObjAddr: 0x11654, symBinAddr: 0x100012424, symSize: 0x34 }
  - { offset: 0x2830C, size: 0x8, addend: 0x0, symName: __ZN5boost4asio19multiple_exceptionsD1Ev, symObjAddr: 0x11688, symBinAddr: 0x100012458, symSize: 0x2C }
  - { offset: 0x2833E, size: 0x8, addend: 0x0, symName: __ZN5boost4asio19multiple_exceptionsC1ERKS1_, symObjAddr: 0x116B4, symBinAddr: 0x100012484, symSize: 0x34 }
  - { offset: 0x28373, size: 0x8, addend: 0x0, symName: __ZN5boost4asio19multiple_exceptionsC2ERKS1_, symObjAddr: 0x116E8, symBinAddr: 0x1000124B8, symSize: 0x58 }
  - { offset: 0x283A8, size: 0x8, addend: 0x0, symName: __ZNSt9exceptionC2B8ne180100ERKS_, symObjAddr: 0x11740, symBinAddr: 0x100012510, symSize: 0x28 }
  - { offset: 0x283DC, size: 0x8, addend: 0x0, symName: __ZN5boost4asio19multiple_exceptionsD0Ev, symObjAddr: 0x11768, symBinAddr: 0x100012538, symSize: 0x30 }
  - { offset: 0x28408, size: 0x8, addend: 0x0, symName: __ZNK5boost4asio19multiple_exceptions4whatEv, symObjAddr: 0x11798, symBinAddr: 0x100012568, symSize: 0x18 }
  - { offset: 0x28430, size: 0x8, addend: 0x0, symName: __ZN5boost4asio19multiple_exceptionsC2ESt13exception_ptr, symObjAddr: 0x117B0, symBinAddr: 0x100012580, symSize: 0x54 }
  - { offset: 0x2846B, size: 0x8, addend: 0x0, symName: __ZNSt9exceptionC2B8ne180100Ev, symObjAddr: 0x11804, symBinAddr: 0x1000125D4, symSize: 0x24 }
  - { offset: 0x28495, size: 0x8, addend: 0x0, symName: __ZN5boost4asio19multiple_exceptionsD2Ev, symObjAddr: 0x11828, symBinAddr: 0x1000125F8, symSize: 0x48 }
  - { offset: 0x284C1, size: 0x8, addend: 0x0, symName: __ZN5boost4asio6detail17executor_functionD2Ev, symObjAddr: 0x11870, symBinAddr: 0x100012640, symSize: 0x6C }
  - { offset: 0x284F1, size: 0x8, addend: 0x0, symName: __ZN5boost4asio6detail23get_recycling_allocatorINSt3__19allocatorIvEENS1_16thread_info_base11default_tagEE3getERKS5_, symObjAddr: 0x118DC, symBinAddr: 0x1000126AC, symSize: 0x24 }
  - { offset: 0x28522, size: 0x8, addend: 0x0, symName: __ZN5boost4asio6detail19recycling_allocatorINS1_11executor_opINS1_17executor_functionENSt3__19allocatorIvEENS1_19scheduler_operationEEENS1_16thread_info_base11default_tagEEC1IvEERKNS2_IT_SB_EE, symObjAddr: 0x11900, symBinAddr: 0x1000126D0, symSize: 0x34 }
  - { offset: 0x2855B, size: 0x8, addend: 0x0, symName: __ZN5boost4asio6detail19recycling_allocatorINS1_11executor_opINS1_17executor_functionENSt3__19allocatorIvEENS1_19scheduler_operationEEENS1_16thread_info_base11default_tagEE8allocateEm, symObjAddr: 0x11934, symBinAddr: 0x100012704, symSize: 0x40 }
  - { offset: 0x2859D, size: 0x8, addend: 0x0, symName: __ZN5boost4asio6detail19recycling_allocatorIvNS1_16thread_info_base11default_tagEEC1Ev, symObjAddr: 0x11974, symBinAddr: 0x100012744, symSize: 0x2C }
  - { offset: 0x285C7, size: 0x8, addend: 0x0, symName: __ZN5boost4asio6detail19recycling_allocatorIvNS1_16thread_info_base11default_tagEEC2Ev, symObjAddr: 0x119A0, symBinAddr: 0x100012770, symSize: 0x14 }
  - { offset: 0x285F1, size: 0x8, addend: 0x0, symName: __ZN5boost4asio6detail19recycling_allocatorINS1_11executor_opINS1_17executor_functionENSt3__19allocatorIvEENS1_19scheduler_operationEEENS1_16thread_info_base11default_tagEEC2IvEERKNS2_IT_SB_EE, symObjAddr: 0x119B4, symBinAddr: 0x100012784, symSize: 0x18 }
  - { offset: 0x2862A, size: 0x8, addend: 0x0, symName: __ZN5boost4asio6detail16thread_info_base8allocateINS2_11default_tagEEEPvT_PS2_mm, symObjAddr: 0x119CC, symBinAddr: 0x10001279C, symSize: 0x218 }
  - { offset: 0x28724, size: 0x8, addend: 0x0, symName: __ZN5boost4asio6detail14thread_context24top_of_thread_call_stackEv, symObjAddr: 0x11BE4, symBinAddr: 0x1000129B4, symSize: 0x14 }
  - { offset: 0x2873A, size: 0x8, addend: 0x0, symName: __ZN5boost10wrapexceptISt9bad_allocEC1ERKS1_, symObjAddr: 0x11E88, symBinAddr: 0x100012C58, symSize: 0x34 }
  - { offset: 0x28772, size: 0x8, addend: 0x0, symName: __ZN5boost10wrapexceptISt9bad_allocED1Ev, symObjAddr: 0x11EBC, symBinAddr: 0x100012C8C, symSize: 0x2C }
  - { offset: 0x2879E, size: 0x8, addend: 0x0, symName: __ZN5boost10wrapexceptISt9bad_allocEC2ERKS1_, symObjAddr: 0x11EE8, symBinAddr: 0x100012CB8, symSize: 0xCC }
  - { offset: 0x287D6, size: 0x8, addend: 0x0, symName: __ZNSt9bad_allocC2B8ne180100ERKS_, symObjAddr: 0x11FB4, symBinAddr: 0x100012D84, symSize: 0x44 }
  - { offset: 0x2880A, size: 0x8, addend: 0x0, symName: __ZN5boost10wrapexceptISt9bad_allocE9copy_fromEPKv, symObjAddr: 0x11FF8, symBinAddr: 0x100012DC8, symSize: 0x14 }
  - { offset: 0x2883A, size: 0x8, addend: 0x0, symName: __ZNK5boost10wrapexceptISt9bad_allocE5cloneEv, symObjAddr: 0x1200C, symBinAddr: 0x100012DDC, symSize: 0xE4 }
  - { offset: 0x2887C, size: 0x8, addend: 0x0, symName: __ZNK5boost10wrapexceptISt9bad_allocE7rethrowEv, symObjAddr: 0x120F0, symBinAddr: 0x100012EC0, symSize: 0x6C }
  - { offset: 0x288A2, size: 0x8, addend: 0x0, symName: __ZN5boost10wrapexceptISt9bad_allocED0Ev, symObjAddr: 0x1215C, symBinAddr: 0x100012F2C, symSize: 0x30 }
  - { offset: 0x288CE, size: 0x8, addend: 0x0, symName: __ZThn8_N5boost10wrapexceptISt9bad_allocED1Ev, symObjAddr: 0x1218C, symBinAddr: 0x100012F5C, symSize: 0x1C }
  - { offset: 0x288E4, size: 0x8, addend: 0x0, symName: __ZThn8_N5boost10wrapexceptISt9bad_allocED0Ev, symObjAddr: 0x121A8, symBinAddr: 0x100012F78, symSize: 0x18 }
  - { offset: 0x288FA, size: 0x8, addend: 0x0, symName: __ZThn16_N5boost10wrapexceptISt9bad_allocED1Ev, symObjAddr: 0x121C0, symBinAddr: 0x100012F90, symSize: 0x1C }
  - { offset: 0x28910, size: 0x8, addend: 0x0, symName: __ZThn16_N5boost10wrapexceptISt9bad_allocED0Ev, symObjAddr: 0x121DC, symBinAddr: 0x100012FAC, symSize: 0x18 }
  - { offset: 0x2892C, size: 0x8, addend: 0x0, symName: __ZN5boost10wrapexceptISt9bad_allocEC1ERKS2_, symObjAddr: 0x121F4, symBinAddr: 0x100012FC4, symSize: 0x34 }
  - { offset: 0x2896D, size: 0x8, addend: 0x0, symName: __ZN5boost10wrapexceptISt9bad_allocE7deleterD1Ev, symObjAddr: 0x12228, symBinAddr: 0x100012FF8, symSize: 0x2C }
  - { offset: 0x28997, size: 0x8, addend: 0x0, symName: __ZN5boost10wrapexceptISt9bad_allocEC2ERKS2_, symObjAddr: 0x12254, symBinAddr: 0x100013024, symSize: 0xAC }
  - { offset: 0x289CC, size: 0x8, addend: 0x0, symName: __ZN5boost10wrapexceptISt9bad_allocE7deleterD2Ev, symObjAddr: 0x12300, symBinAddr: 0x1000130D0, symSize: 0x58 }
  - { offset: 0x289F6, size: 0x8, addend: 0x0, symName: __ZN5boost10wrapexceptISt9bad_allocED2Ev, symObjAddr: 0x12358, symBinAddr: 0x100013128, symSize: 0x44 }
  - { offset: 0x28A22, size: 0x8, addend: 0x0, symName: __ZN5boost4asio6detail10call_stackINS1_14thread_contextENS1_16thread_info_baseEE3topEv, symObjAddr: 0x1239C, symBinAddr: 0x10001316C, symSize: 0x5C }
  - { offset: 0x28A45, size: 0x8, addend: 0x0, symName: __ZN5boost4asio6detail11executor_opINS1_17executor_functionENSt3__19allocatorIvEENS1_19scheduler_operationEEC2IS3_EEOT_RKS6_, symObjAddr: 0x123F8, symBinAddr: 0x1000131C8, symSize: 0x4C }
  - { offset: 0x28A94, size: 0x8, addend: 0x0, symName: __ZN5boost4asio6detail11executor_opINS1_17executor_functionENSt3__19allocatorIvEENS1_19scheduler_operationEE11do_completeEPvPS7_RKNS_6system10error_codeEm, symObjAddr: 0x12444, symBinAddr: 0x100013214, symSize: 0xFC }
  - { offset: 0x28B25, size: 0x8, addend: 0x0, symName: __ZN5boost4asio6detail11executor_opINS1_17executor_functionENSt3__19allocatorIvEENS1_19scheduler_operationEE3ptr5resetEv, symObjAddr: 0x12540, symBinAddr: 0x100013310, symSize: 0xA4 }
  - { offset: 0x28B67, size: 0x8, addend: 0x0, symName: __ZN5boost4asio6detail16std_fenced_blockC1ENS2_6half_tE, symObjAddr: 0x125E4, symBinAddr: 0x1000133B4, symSize: 0x34 }
  - { offset: 0x28B9B, size: 0x8, addend: 0x0, symName: __ZN5boost4asio6detail11executor_opINS1_17executor_functionENSt3__19allocatorIvEENS1_19scheduler_operationEED1Ev, symObjAddr: 0x12618, symBinAddr: 0x1000133E8, symSize: 0x2C }
  - { offset: 0x28BC7, size: 0x8, addend: 0x0, symName: __ZN5boost4asio6detail19recycling_allocatorINS1_11executor_opINS1_17executor_functionENSt3__19allocatorIvEENS1_19scheduler_operationEEENS1_16thread_info_base11default_tagEE10deallocateEPS9_m, symObjAddr: 0x12644, symBinAddr: 0x100013414, symSize: 0x3C }
  - { offset: 0x28C09, size: 0x8, addend: 0x0, symName: __ZN5boost4asio6detail11executor_opINS1_17executor_functionENSt3__19allocatorIvEENS1_19scheduler_operationEED2Ev, symObjAddr: 0x12680, symBinAddr: 0x100013450, symSize: 0x38 }
  - { offset: 0x28C35, size: 0x8, addend: 0x0, symName: __ZN5boost4asio6detail16thread_info_base10deallocateINS2_11default_tagEEEvT_PS2_Pvm, symObjAddr: 0x126B8, symBinAddr: 0x100013488, symSize: 0xE0 }
  - { offset: 0x28CBF, size: 0x8, addend: 0x0, symName: __ZN5boost4asio6detail16std_fenced_blockC2ENS2_6half_tE, symObjAddr: 0x12798, symBinAddr: 0x100013568, symSize: 0x30 }
  - { offset: 0x28CF3, size: 0x8, addend: 0x0, symName: __ZN5boost4asio6detail9scheduler12work_startedEv, symObjAddr: 0x127C8, symBinAddr: 0x100013598, symSize: 0x28 }
  - { offset: 0x28D19, size: 0x8, addend: 0x0, symName: __ZN5boost4asio6detail11executor_opINS1_17executor_functionENSt3__19allocatorIvEENS1_19scheduler_operationEE3ptrD2Ev, symObjAddr: 0x127F0, symBinAddr: 0x1000135C0, symSize: 0x34 }
  - { offset: 0x28D49, size: 0x8, addend: 0x0, symName: __ZNK5boost4asio10io_context19basic_executor_typeINSt3__19allocatorIvEELm0EE7executeIRNS0_6detail22executor_function_viewEEEvOT_, symObjAddr: 0x12824, symBinAddr: 0x1000135F4, symSize: 0x19C }
  - { offset: 0x28DCA, size: 0x8, addend: 0x0, symName: __ZN5boost4asio6detail22executor_function_viewC1IS2_EERT_, symObjAddr: 0x129C0, symBinAddr: 0x100013790, symSize: 0x34 }
  - { offset: 0x28E0B, size: 0x8, addend: 0x0, symName: __ZN5boost4asio6detail22executor_function_viewclEv, symObjAddr: 0x129F4, symBinAddr: 0x1000137C4, symSize: 0x2C }
  - { offset: 0x28E37, size: 0x8, addend: 0x0, symName: __ZN5boost4asio6detail11executor_opINS1_22executor_function_viewENSt3__19allocatorIvEENS1_19scheduler_operationEE3ptr8allocateERKS6_, symObjAddr: 0x12A20, symBinAddr: 0x1000137F0, symSize: 0x40 }
  - { offset: 0x28E6E, size: 0x8, addend: 0x0, symName: __ZN5boost4asio6detail11executor_opINS1_22executor_function_viewENSt3__19allocatorIvEENS1_19scheduler_operationEEC1IRS3_EEOT_RKS6_, symObjAddr: 0x12A60, symBinAddr: 0x100013830, symSize: 0x3C }
  - { offset: 0x28EBD, size: 0x8, addend: 0x0, symName: __ZN5boost4asio6detail11executor_opINS1_22executor_function_viewENSt3__19allocatorIvEENS1_19scheduler_operationEE3ptrD1Ev, symObjAddr: 0x12A9C, symBinAddr: 0x10001386C, symSize: 0x2C }
  - { offset: 0x28EE7, size: 0x8, addend: 0x0, symName: __ZN5boost4asio6detail22executor_function_viewC2IS2_EERT_, symObjAddr: 0x12AC8, symBinAddr: 0x100013898, symSize: 0x2C }
  - { offset: 0x28F28, size: 0x8, addend: 0x0, symName: __ZN5boost4asio6detail22executor_function_view8completeIS2_EEvPv, symObjAddr: 0x12AF4, symBinAddr: 0x1000138C4, symSize: 0x24 }
  - { offset: 0x28F5A, size: 0x8, addend: 0x0, symName: __ZN5boost4asio6detail19recycling_allocatorINS1_11executor_opINS1_22executor_function_viewENSt3__19allocatorIvEENS1_19scheduler_operationEEENS1_16thread_info_base11default_tagEEC1IvEERKNS2_IT_SB_EE, symObjAddr: 0x12B18, symBinAddr: 0x1000138E8, symSize: 0x34 }
  - { offset: 0x28F93, size: 0x8, addend: 0x0, symName: __ZN5boost4asio6detail19recycling_allocatorINS1_11executor_opINS1_22executor_function_viewENSt3__19allocatorIvEENS1_19scheduler_operationEEENS1_16thread_info_base11default_tagEE8allocateEm, symObjAddr: 0x12B4C, symBinAddr: 0x10001391C, symSize: 0x40 }
  - { offset: 0x28FD5, size: 0x8, addend: 0x0, symName: __ZN5boost4asio6detail19recycling_allocatorINS1_11executor_opINS1_22executor_function_viewENSt3__19allocatorIvEENS1_19scheduler_operationEEENS1_16thread_info_base11default_tagEEC2IvEERKNS2_IT_SB_EE, symObjAddr: 0x12B8C, symBinAddr: 0x10001395C, symSize: 0x18 }
  - { offset: 0x2900E, size: 0x8, addend: 0x0, symName: __ZN5boost4asio6detail11executor_opINS1_22executor_function_viewENSt3__19allocatorIvEENS1_19scheduler_operationEEC2IRS3_EEOT_RKS6_, symObjAddr: 0x12BA4, symBinAddr: 0x100013974, symSize: 0x4C }
  - { offset: 0x2905D, size: 0x8, addend: 0x0, symName: __ZN5boost4asio6detail11executor_opINS1_22executor_function_viewENSt3__19allocatorIvEENS1_19scheduler_operationEE11do_completeEPvPS7_RKNS_6system10error_codeEm, symObjAddr: 0x12BF0, symBinAddr: 0x1000139C0, symSize: 0xE0 }
  - { offset: 0x290EE, size: 0x8, addend: 0x0, symName: __ZN5boost4asio6detail11executor_opINS1_22executor_function_viewENSt3__19allocatorIvEENS1_19scheduler_operationEE3ptr5resetEv, symObjAddr: 0x12CD0, symBinAddr: 0x100013AA0, symSize: 0xA4 }
  - { offset: 0x29130, size: 0x8, addend: 0x0, symName: __ZN5boost4asio6detail11executor_opINS1_22executor_function_viewENSt3__19allocatorIvEENS1_19scheduler_operationEED1Ev, symObjAddr: 0x12D74, symBinAddr: 0x100013B44, symSize: 0x2C }
  - { offset: 0x2915C, size: 0x8, addend: 0x0, symName: __ZN5boost4asio6detail19recycling_allocatorINS1_11executor_opINS1_22executor_function_viewENSt3__19allocatorIvEENS1_19scheduler_operationEEENS1_16thread_info_base11default_tagEE10deallocateEPS9_m, symObjAddr: 0x12DA0, symBinAddr: 0x100013B70, symSize: 0x3C }
  - { offset: 0x2919E, size: 0x8, addend: 0x0, symName: __ZN5boost4asio6detail11executor_opINS1_22executor_function_viewENSt3__19allocatorIvEENS1_19scheduler_operationEED2Ev, symObjAddr: 0x12DDC, symBinAddr: 0x100013BAC, symSize: 0x2C }
  - { offset: 0x291CA, size: 0x8, addend: 0x0, symName: __ZN5boost4asio6detail11executor_opINS1_22executor_function_viewENSt3__19allocatorIvEENS1_19scheduler_operationEE3ptrD2Ev, symObjAddr: 0x12E08, symBinAddr: 0x100013BD8, symSize: 0x34 }
  - { offset: 0x29206, size: 0x8, addend: 0x0, symName: __ZNK19boost_asio_query_fn4implclIRKN5boost4asio10io_context19basic_executor_typeINSt3__19allocatorIvEELm0EEERKNS3_9execution6detail10blocking_tILi0EEEEENS6_9enable_ifIXeqsr11call_traitsIS0_T_FvT0_EEE8overloadLNS_13overload_typeE1EENS_11call_traitsIS0_SJ_SL_vvvvE11result_typeEE4typeEOSJ_OSK_, symObjAddr: 0x12E3C, symBinAddr: 0x100013C0C, symSize: 0x48 }
  - { offset: 0x2925A, size: 0x8, addend: 0x0, symName: __ZNK5boost4asio10io_context19basic_executor_typeINSt3__19allocatorIvEELm0EE5queryENS0_9execution6detail10blocking_tILi0EEE, symObjAddr: 0x12E84, symBinAddr: 0x100013C54, symSize: 0x64 }
  - { offset: 0x2928B, size: 0x8, addend: 0x0, symName: __ZN5boost4asio9execution6detail10blocking_tILi0EEC1ENS2_8blocking7never_tILi0EEE, symObjAddr: 0x12EE8, symBinAddr: 0x100013CB8, symSize: 0x2C }
  - { offset: 0x292BF, size: 0x8, addend: 0x0, symName: __ZN5boost4asio9execution6detail10blocking_tILi0EEC1ENS2_8blocking10possibly_tILi0EEE, symObjAddr: 0x12F14, symBinAddr: 0x100013CE4, symSize: 0x2C }
  - { offset: 0x292F3, size: 0x8, addend: 0x0, symName: __ZN5boost4asio9execution6detail10blocking_tILi0EEC2ENS2_8blocking7never_tILi0EEE, symObjAddr: 0x12F40, symBinAddr: 0x100013D10, symSize: 0x1C }
  - { offset: 0x29327, size: 0x8, addend: 0x0, symName: __ZN5boost4asio9execution6detail10blocking_tILi0EEC2ENS2_8blocking10possibly_tILi0EEE, symObjAddr: 0x12F5C, symBinAddr: 0x100013D2C, symSize: 0x18 }
  - { offset: 0x2935B, size: 0x8, addend: 0x0, symName: __ZN5boost4asio9execution6detail10blocking_tILi0EEC2ENS2_8blocking8always_tILi0EEE, symObjAddr: 0x12F74, symBinAddr: 0x100013D44, symSize: 0x1C }
  - { offset: 0x2938F, size: 0x8, addend: 0x0, symName: __ZN5boost4asio9execution6detail17any_executor_base14destroy_objectINS0_10io_context19basic_executor_typeINSt3__19allocatorIvEELm0EEEEEvRS3_, symObjAddr: 0x12FA8, symBinAddr: 0x100013D78, symSize: 0x28 }
  - { offset: 0x293BC, size: 0x8, addend: 0x0, symName: __ZN5boost4asio9execution6detail17any_executor_base11copy_objectINS0_10io_context19basic_executor_typeINSt3__19allocatorIvEELm0EEEEEvRS3_RKS3_, symObjAddr: 0x12FD0, symBinAddr: 0x100013DA0, symSize: 0x4C }
  - { offset: 0x293F8, size: 0x8, addend: 0x0, symName: __ZN5boost4asio9execution6detail17any_executor_base11move_objectINS0_10io_context19basic_executor_typeINSt3__19allocatorIvEELm0EEEEEvRS3_SB_, symObjAddr: 0x1301C, symBinAddr: 0x100013DEC, symSize: 0x58 }
  - { offset: 0x29434, size: 0x8, addend: 0x0, symName: __ZN5boost4asio9execution6detail17any_executor_base13target_objectINS0_10io_context19basic_executor_typeINSt3__19allocatorIvEELm0EEEEEPKvRKS3_, symObjAddr: 0x13074, symBinAddr: 0x100013E44, symSize: 0x24 }
  - { offset: 0x29461, size: 0x8, addend: 0x0, symName: __ZN5boost4asio9execution6detail17any_executor_base6objectINS0_10io_context19basic_executor_typeINSt3__19allocatorIvEELm0EEEEERT_v, symObjAddr: 0x13098, symBinAddr: 0x100013E68, symSize: 0x14 }
  - { offset: 0x29490, size: 0x8, addend: 0x0, symName: __ZNK5boost4asio9execution6detail17any_executor_base6objectINS0_10io_context19basic_executor_typeINSt3__19allocatorIvEELm0EEEEERKT_v, symObjAddr: 0x130AC, symBinAddr: 0x100013E7C, symSize: 0x14 }
  - { offset: 0x294BF, size: 0x8, addend: 0x0, symName: __ZN5boost4asio10io_context19basic_executor_typeINSt3__19allocatorIvEELm0EEC1ERKS6_, symObjAddr: 0x130C0, symBinAddr: 0x100013E90, symSize: 0x34 }
  - { offset: 0x294F8, size: 0x8, addend: 0x0, symName: __ZN5boost4asio10io_context19basic_executor_typeINSt3__19allocatorIvEELm0EEC2ERKS6_, symObjAddr: 0x130F4, symBinAddr: 0x100013EC4, symSize: 0x24 }
  - { offset: 0x29531, size: 0x8, addend: 0x0, symName: __ZN5boost4asio9execution6detail17any_executor_base8query_fnINS0_10io_context19basic_executor_typeINSt3__19allocatorIvEELm0EEENS1_12context_as_tIRNS0_17execution_contextEEEEEvPvPKvSH_, symObjAddr: 0x13118, symBinAddr: 0x100013EE8, symSize: 0x38 }
  - { offset: 0x29585, size: 0x8, addend: 0x0, symName: __ZN5boost4asio9execution6detail17any_executor_base10require_fnINS1_12any_executorIJNS1_12context_as_tIRNS0_17execution_contextEEENS2_8blocking7never_tILi0EEENS1_11prefer_onlyINSA_10possibly_tILi0EEEEENSD_INS2_16outstanding_work9tracked_tILi0EEEEENSD_INSH_11untracked_tILi0EEEEENSD_INS2_12relationship6fork_tILi0EEEEENSD_INSO_14continuation_tILi0EEEEEEEENS0_10io_context19basic_executor_typeINSt3__19allocatorIvEELm0EEES9_EET_PKvS14_, symObjAddr: 0x13150, symBinAddr: 0x100013F20, symSize: 0x3C }
  - { offset: 0x295D3, size: 0x8, addend: 0x0, symName: __ZN5boost4asio9execution6detail17any_executor_base9prefer_fnINS1_12any_executorIJNS1_12context_as_tIRNS0_17execution_contextEEENS2_8blocking7never_tILi0EEENS1_11prefer_onlyINSA_10possibly_tILi0EEEEENSD_INS2_16outstanding_work9tracked_tILi0EEEEENSD_INSH_11untracked_tILi0EEEEENSD_INS2_12relationship6fork_tILi0EEEEENSD_INSO_14continuation_tILi0EEEEEEEENS0_10io_context19basic_executor_typeINSt3__19allocatorIvEELm0EEES9_EET_PKvS14_, symObjAddr: 0x1318C, symBinAddr: 0x100013F5C, symSize: 0x3C }
  - { offset: 0x29621, size: 0x8, addend: 0x0, symName: __ZN5boost4asio9execution6detail17any_executor_base8query_fnINS0_10io_context19basic_executor_typeINSt3__19allocatorIvEELm0EEENS2_8blocking7never_tILi0EEEEEvPvPKvSG_, symObjAddr: 0x131C8, symBinAddr: 0x100013F98, symSize: 0x38 }
  - { offset: 0x29675, size: 0x8, addend: 0x0, symName: __ZN5boost4asio9execution6detail17any_executor_base10require_fnINS1_12any_executorIJNS1_12context_as_tIRNS0_17execution_contextEEENS2_8blocking7never_tILi0EEENS1_11prefer_onlyINSA_10possibly_tILi0EEEEENSD_INS2_16outstanding_work9tracked_tILi0EEEEENSD_INSH_11untracked_tILi0EEEEENSD_INS2_12relationship6fork_tILi0EEEEENSD_INSO_14continuation_tILi0EEEEEEEENS0_10io_context19basic_executor_typeINSt3__19allocatorIvEELm0EEESC_EET_PKvS14_, symObjAddr: 0x13200, symBinAddr: 0x100013FD0, symSize: 0x38 }
  - { offset: 0x296C3, size: 0x8, addend: 0x0, symName: __ZN5boost4asio9execution6detail17any_executor_base9prefer_fnINS1_12any_executorIJNS1_12context_as_tIRNS0_17execution_contextEEENS2_8blocking7never_tILi0EEENS1_11prefer_onlyINSA_10possibly_tILi0EEEEENSD_INS2_16outstanding_work9tracked_tILi0EEEEENSD_INSH_11untracked_tILi0EEEEENSD_INS2_12relationship6fork_tILi0EEEEENSD_INSO_14continuation_tILi0EEEEEEEENS0_10io_context19basic_executor_typeINSt3__19allocatorIvEELm0EEESC_EET_PKvS14_, symObjAddr: 0x13238, symBinAddr: 0x100014008, symSize: 0x38 }
  - { offset: 0x29711, size: 0x8, addend: 0x0, symName: __ZN5boost4asio9execution6detail17any_executor_base8query_fnINS0_10io_context19basic_executor_typeINSt3__19allocatorIvEELm0EEENS1_11prefer_onlyINS2_8blocking10possibly_tILi0EEEEEEEvPvPKvSI_, symObjAddr: 0x13270, symBinAddr: 0x100014040, symSize: 0x38 }
  - { offset: 0x29765, size: 0x8, addend: 0x0, symName: __ZN5boost4asio9execution6detail17any_executor_base10require_fnINS1_12any_executorIJNS1_12context_as_tIRNS0_17execution_contextEEENS2_8blocking7never_tILi0EEENS1_11prefer_onlyINSA_10possibly_tILi0EEEEENSD_INS2_16outstanding_work9tracked_tILi0EEEEENSD_INSH_11untracked_tILi0EEEEENSD_INS2_12relationship6fork_tILi0EEEEENSD_INSO_14continuation_tILi0EEEEEEEENS0_10io_context19basic_executor_typeINSt3__19allocatorIvEELm0EEESG_EET_PKvS14_, symObjAddr: 0x132A8, symBinAddr: 0x100014078, symSize: 0x3C }
  - { offset: 0x297B3, size: 0x8, addend: 0x0, symName: __ZN5boost4asio9execution6detail17any_executor_base9prefer_fnINS1_12any_executorIJNS1_12context_as_tIRNS0_17execution_contextEEENS2_8blocking7never_tILi0EEENS1_11prefer_onlyINSA_10possibly_tILi0EEEEENSD_INS2_16outstanding_work9tracked_tILi0EEEEENSD_INSH_11untracked_tILi0EEEEENSD_INS2_12relationship6fork_tILi0EEEEENSD_INSO_14continuation_tILi0EEEEEEEENS0_10io_context19basic_executor_typeINSt3__19allocatorIvEELm0EEESG_EET_PKvS14_, symObjAddr: 0x132E4, symBinAddr: 0x1000140B4, symSize: 0x38 }
  - { offset: 0x29801, size: 0x8, addend: 0x0, symName: __ZN5boost4asio9execution6detail17any_executor_base8query_fnINS0_10io_context19basic_executor_typeINSt3__19allocatorIvEELm0EEENS1_11prefer_onlyINS2_16outstanding_work9tracked_tILi0EEEEEEEvPvPKvSI_, symObjAddr: 0x1331C, symBinAddr: 0x1000140EC, symSize: 0x38 }
  - { offset: 0x29855, size: 0x8, addend: 0x0, symName: __ZN5boost4asio9execution6detail17any_executor_base10require_fnINS1_12any_executorIJNS1_12context_as_tIRNS0_17execution_contextEEENS2_8blocking7never_tILi0EEENS1_11prefer_onlyINSA_10possibly_tILi0EEEEENSD_INS2_16outstanding_work9tracked_tILi0EEEEENSD_INSH_11untracked_tILi0EEEEENSD_INS2_12relationship6fork_tILi0EEEEENSD_INSO_14continuation_tILi0EEEEEEEENS0_10io_context19basic_executor_typeINSt3__19allocatorIvEELm0EEESK_EET_PKvS14_, symObjAddr: 0x13354, symBinAddr: 0x100014124, symSize: 0x3C }
  - { offset: 0x298A3, size: 0x8, addend: 0x0, symName: __ZN5boost4asio9execution6detail17any_executor_base9prefer_fnINS1_12any_executorIJNS1_12context_as_tIRNS0_17execution_contextEEENS2_8blocking7never_tILi0EEENS1_11prefer_onlyINSA_10possibly_tILi0EEEEENSD_INS2_16outstanding_work9tracked_tILi0EEEEENSD_INSH_11untracked_tILi0EEEEENSD_INS2_12relationship6fork_tILi0EEEEENSD_INSO_14continuation_tILi0EEEEEEEENS0_10io_context19basic_executor_typeINSt3__19allocatorIvEELm0EEESK_EET_PKvS14_, symObjAddr: 0x13390, symBinAddr: 0x100014160, symSize: 0x38 }
  - { offset: 0x298F1, size: 0x8, addend: 0x0, symName: __ZN5boost4asio9execution6detail17any_executor_base8query_fnINS0_10io_context19basic_executor_typeINSt3__19allocatorIvEELm0EEENS1_11prefer_onlyINS2_16outstanding_work11untracked_tILi0EEEEEEEvPvPKvSI_, symObjAddr: 0x133C8, symBinAddr: 0x100014198, symSize: 0x38 }
  - { offset: 0x29945, size: 0x8, addend: 0x0, symName: __ZN5boost4asio9execution6detail17any_executor_base10require_fnINS1_12any_executorIJNS1_12context_as_tIRNS0_17execution_contextEEENS2_8blocking7never_tILi0EEENS1_11prefer_onlyINSA_10possibly_tILi0EEEEENSD_INS2_16outstanding_work9tracked_tILi0EEEEENSD_INSH_11untracked_tILi0EEEEENSD_INS2_12relationship6fork_tILi0EEEEENSD_INSO_14continuation_tILi0EEEEEEEENS0_10io_context19basic_executor_typeINSt3__19allocatorIvEELm0EEESN_EET_PKvS14_, symObjAddr: 0x13400, symBinAddr: 0x1000141D0, symSize: 0x3C }
  - { offset: 0x29993, size: 0x8, addend: 0x0, symName: __ZN5boost4asio9execution6detail17any_executor_base9prefer_fnINS1_12any_executorIJNS1_12context_as_tIRNS0_17execution_contextEEENS2_8blocking7never_tILi0EEENS1_11prefer_onlyINSA_10possibly_tILi0EEEEENSD_INS2_16outstanding_work9tracked_tILi0EEEEENSD_INSH_11untracked_tILi0EEEEENSD_INS2_12relationship6fork_tILi0EEEEENSD_INSO_14continuation_tILi0EEEEEEEENS0_10io_context19basic_executor_typeINSt3__19allocatorIvEELm0EEESN_EET_PKvS14_, symObjAddr: 0x1343C, symBinAddr: 0x10001420C, symSize: 0x38 }
  - { offset: 0x299E1, size: 0x8, addend: 0x0, symName: __ZN5boost4asio9execution6detail17any_executor_base8query_fnINS0_10io_context19basic_executor_typeINSt3__19allocatorIvEELm0EEENS1_11prefer_onlyINS2_12relationship6fork_tILi0EEEEEEEvPvPKvSI_, symObjAddr: 0x13474, symBinAddr: 0x100014244, symSize: 0x38 }
  - { offset: 0x29A35, size: 0x8, addend: 0x0, symName: __ZN5boost4asio9execution6detail17any_executor_base10require_fnINS1_12any_executorIJNS1_12context_as_tIRNS0_17execution_contextEEENS2_8blocking7never_tILi0EEENS1_11prefer_onlyINSA_10possibly_tILi0EEEEENSD_INS2_16outstanding_work9tracked_tILi0EEEEENSD_INSH_11untracked_tILi0EEEEENSD_INS2_12relationship6fork_tILi0EEEEENSD_INSO_14continuation_tILi0EEEEEEEENS0_10io_context19basic_executor_typeINSt3__19allocatorIvEELm0EEESR_EET_PKvS14_, symObjAddr: 0x134AC, symBinAddr: 0x10001427C, symSize: 0x3C }
  - { offset: 0x29A83, size: 0x8, addend: 0x0, symName: __ZN5boost4asio9execution6detail17any_executor_base9prefer_fnINS1_12any_executorIJNS1_12context_as_tIRNS0_17execution_contextEEENS2_8blocking7never_tILi0EEENS1_11prefer_onlyINSA_10possibly_tILi0EEEEENSD_INS2_16outstanding_work9tracked_tILi0EEEEENSD_INSH_11untracked_tILi0EEEEENSD_INS2_12relationship6fork_tILi0EEEEENSD_INSO_14continuation_tILi0EEEEEEEENS0_10io_context19basic_executor_typeINSt3__19allocatorIvEELm0EEESR_EET_PKvS14_, symObjAddr: 0x134E8, symBinAddr: 0x1000142B8, symSize: 0x38 }
  - { offset: 0x29AD1, size: 0x8, addend: 0x0, symName: __ZN5boost4asio9execution6detail17any_executor_base8query_fnINS0_10io_context19basic_executor_typeINSt3__19allocatorIvEELm0EEENS1_11prefer_onlyINS2_12relationship14continuation_tILi0EEEEEEEvPvPKvSI_, symObjAddr: 0x13520, symBinAddr: 0x1000142F0, symSize: 0x38 }
  - { offset: 0x29B25, size: 0x8, addend: 0x0, symName: __ZN5boost4asio9execution6detail17any_executor_base10require_fnINS1_12any_executorIJNS1_12context_as_tIRNS0_17execution_contextEEENS2_8blocking7never_tILi0EEENS1_11prefer_onlyINSA_10possibly_tILi0EEEEENSD_INS2_16outstanding_work9tracked_tILi0EEEEENSD_INSH_11untracked_tILi0EEEEENSD_INS2_12relationship6fork_tILi0EEEEENSD_INSO_14continuation_tILi0EEEEEEEENS0_10io_context19basic_executor_typeINSt3__19allocatorIvEELm0EEESU_EET_PKvS14_, symObjAddr: 0x13558, symBinAddr: 0x100014328, symSize: 0x3C }
  - { offset: 0x29B73, size: 0x8, addend: 0x0, symName: __ZN5boost4asio9execution6detail17any_executor_base9prefer_fnINS1_12any_executorIJNS1_12context_as_tIRNS0_17execution_contextEEENS2_8blocking7never_tILi0EEENS1_11prefer_onlyINSA_10possibly_tILi0EEEEENSD_INS2_16outstanding_work9tracked_tILi0EEEEENSD_INSH_11untracked_tILi0EEEEENSD_INS2_12relationship6fork_tILi0EEEEENSD_INSO_14continuation_tILi0EEEEEEEENS0_10io_context19basic_executor_typeINSt3__19allocatorIvEELm0EEESU_EET_PKvS14_, symObjAddr: 0x13594, symBinAddr: 0x100014364, symSize: 0x38 }
  - { offset: 0x29BC1, size: 0x8, addend: 0x0, symName: __ZN5boost4asio9execution6detail17any_executor_base13query_fn_implINS0_10io_context19basic_executor_typeINSt3__19allocatorIvEELm0EEENS1_12context_as_tIRNS0_17execution_contextEEEEEvPvPKvSH_PNS7_9enable_ifIXntsr7is_sameIT_vEE5valueEvE4typeE, symObjAddr: 0x135CC, symBinAddr: 0x10001439C, symSize: 0x3C }
  - { offset: 0x29C26, size: 0x8, addend: 0x0, symName: __ZN5boost4asio9execution6detail17any_executor_base17query_fn_non_voidINS0_10io_context19basic_executor_typeINSt3__19allocatorIvEELm0EEENS1_12context_as_tIRNS0_17execution_contextEEEEEvPvPKvSH_PNS7_9enable_ifIXaaaasr5boost4asio9can_queryIRKT_RKT0_EE5valuentsr7is_sameINSM_29polymorphic_query_result_typeEvEE5valuesr12is_referenceISP_EE5valueEvE4typeE, symObjAddr: 0x13608, symBinAddr: 0x1000143D8, symSize: 0x44 }
  - { offset: 0x29C8B, size: 0x8, addend: 0x0, symName: __ZNK19boost_asio_query_fn4implclIRKN5boost4asio10io_context19basic_executor_typeINSt3__19allocatorIvEELm0EEERKNS3_9execution12context_as_tIRNS3_17execution_contextEEEEENS6_9enable_ifIXeqsr11call_traitsIS0_T_FvT0_EEE8overloadLNS_13overload_typeE2EENS_11call_traitsIS0_SK_SM_vvvvE11result_typeEE4typeEOSK_OSL_, symObjAddr: 0x1364C, symBinAddr: 0x10001441C, symSize: 0x38 }
  - { offset: 0x29CEB, size: 0x8, addend: 0x0, symName: __ZNK19boost_asio_query_fn4implclIRKN5boost4asio10io_context19basic_executor_typeINSt3__19allocatorIvEELm0EEERKNS3_9execution6detail9context_tILi0EEEEENS6_9enable_ifIXeqsr11call_traitsIS0_T_FvT0_EEE8overloadLNS_13overload_typeE1EENS_11call_traitsIS0_SJ_SL_vvvvE11result_typeEE4typeEOSJ_OSK_, symObjAddr: 0x136C4, symBinAddr: 0x100014494, symSize: 0x2C }
  - { offset: 0x29D3F, size: 0x8, addend: 0x0, symName: __ZNK5boost4asio10io_context19basic_executor_typeINSt3__19allocatorIvEELm0EE5queryENS0_9execution6detail9context_tILi0EEE, symObjAddr: 0x136F0, symBinAddr: 0x1000144C0, symSize: 0x24 }
  - { offset: 0x29D70, size: 0x8, addend: 0x0, symName: __ZN5boost4asio9execution6detail17any_executor_base15require_fn_implINS1_12any_executorIJNS1_12context_as_tIRNS0_17execution_contextEEENS2_8blocking7never_tILi0EEENS1_11prefer_onlyINSA_10possibly_tILi0EEEEENSD_INS2_16outstanding_work9tracked_tILi0EEEEENSD_INSH_11untracked_tILi0EEEEENSD_INS2_12relationship6fork_tILi0EEEEENSD_INSO_14continuation_tILi0EEEEEEEENS0_10io_context19basic_executor_typeINSt3__19allocatorIvEELm0EEES9_EET_PKvS14_z, symObjAddr: 0x13714, symBinAddr: 0x1000144E4, symSize: 0x38 }
  - { offset: 0x29DB7, size: 0x8, addend: 0x0, symName: __ZN5boost4asio9execution12any_executorIJNS1_12context_as_tIRNS0_17execution_contextEEENS1_6detail8blocking7never_tILi0EEENS1_11prefer_onlyINS8_10possibly_tILi0EEEEENSB_INS7_16outstanding_work9tracked_tILi0EEEEENSB_INSF_11untracked_tILi0EEEEENSB_INS7_12relationship6fork_tILi0EEEEENSB_INSM_14continuation_tILi0EEEEEEEC1Ev, symObjAddr: 0x1374C, symBinAddr: 0x10001451C, symSize: 0x2C }
  - { offset: 0x29DE1, size: 0x8, addend: 0x0, symName: __ZN5boost4asio9execution12any_executorIJNS1_12context_as_tIRNS0_17execution_contextEEENS1_6detail8blocking7never_tILi0EEENS1_11prefer_onlyINS8_10possibly_tILi0EEEEENSB_INS7_16outstanding_work9tracked_tILi0EEEEENSB_INSF_11untracked_tILi0EEEEENSB_INS7_12relationship6fork_tILi0EEEEENSB_INSM_14continuation_tILi0EEEEEEEC2Ev, symObjAddr: 0x13778, symBinAddr: 0x100014548, symSize: 0x44 }
  - { offset: 0x29E0B, size: 0x8, addend: 0x0, symName: __ZN5boost4asio9execution6detail17any_executor_baseC2Ev, symObjAddr: 0x137BC, symBinAddr: 0x10001458C, symSize: 0x20 }
  - { offset: 0x29E35, size: 0x8, addend: 0x0, symName: __ZN5boost4asio9execution6detail17any_executor_base8query_fnIvNS1_12context_as_tIRNS0_17execution_contextEEEEEvPvPKvSB_, symObjAddr: 0x137E8, symBinAddr: 0x1000145B8, symSize: 0x38 }
  - { offset: 0x29E85, size: 0x8, addend: 0x0, symName: __ZN5boost4asio9execution6detail17any_executor_base10require_fnINS1_12any_executorIJNS1_12context_as_tIRNS0_17execution_contextEEENS2_8blocking7never_tILi0EEENS1_11prefer_onlyINSA_10possibly_tILi0EEEEENSD_INS2_16outstanding_work9tracked_tILi0EEEEENSD_INSH_11untracked_tILi0EEEEENSD_INS2_12relationship6fork_tILi0EEEEENSD_INSO_14continuation_tILi0EEEEEEEEvS9_EET_PKvSY_, symObjAddr: 0x13820, symBinAddr: 0x1000145F0, symSize: 0x38 }
  - { offset: 0x29ECF, size: 0x8, addend: 0x0, symName: __ZN5boost4asio9execution6detail17any_executor_base9prefer_fnINS1_12any_executorIJNS1_12context_as_tIRNS0_17execution_contextEEENS2_8blocking7never_tILi0EEENS1_11prefer_onlyINSA_10possibly_tILi0EEEEENSD_INS2_16outstanding_work9tracked_tILi0EEEEENSD_INSH_11untracked_tILi0EEEEENSD_INS2_12relationship6fork_tILi0EEEEENSD_INSO_14continuation_tILi0EEEEEEEEvS9_EET_PKvSY_, symObjAddr: 0x13858, symBinAddr: 0x100014628, symSize: 0x38 }
  - { offset: 0x29F19, size: 0x8, addend: 0x0, symName: __ZN5boost4asio9execution6detail17any_executor_base8query_fnIvNS2_8blocking7never_tILi0EEEEEvPvPKvSA_, symObjAddr: 0x13890, symBinAddr: 0x100014660, symSize: 0x38 }
  - { offset: 0x29F69, size: 0x8, addend: 0x0, symName: __ZN5boost4asio9execution6detail17any_executor_base10require_fnINS1_12any_executorIJNS1_12context_as_tIRNS0_17execution_contextEEENS2_8blocking7never_tILi0EEENS1_11prefer_onlyINSA_10possibly_tILi0EEEEENSD_INS2_16outstanding_work9tracked_tILi0EEEEENSD_INSH_11untracked_tILi0EEEEENSD_INS2_12relationship6fork_tILi0EEEEENSD_INSO_14continuation_tILi0EEEEEEEEvSC_EET_PKvSY_, symObjAddr: 0x138C8, symBinAddr: 0x100014698, symSize: 0x38 }
  - { offset: 0x29FB3, size: 0x8, addend: 0x0, symName: __ZN5boost4asio9execution6detail17any_executor_base9prefer_fnINS1_12any_executorIJNS1_12context_as_tIRNS0_17execution_contextEEENS2_8blocking7never_tILi0EEENS1_11prefer_onlyINSA_10possibly_tILi0EEEEENSD_INS2_16outstanding_work9tracked_tILi0EEEEENSD_INSH_11untracked_tILi0EEEEENSD_INS2_12relationship6fork_tILi0EEEEENSD_INSO_14continuation_tILi0EEEEEEEEvSC_EET_PKvSY_, symObjAddr: 0x13900, symBinAddr: 0x1000146D0, symSize: 0x38 }
  - { offset: 0x29FFD, size: 0x8, addend: 0x0, symName: __ZN5boost4asio9execution6detail17any_executor_base8query_fnIvNS1_11prefer_onlyINS2_8blocking10possibly_tILi0EEEEEEEvPvPKvSC_, symObjAddr: 0x13938, symBinAddr: 0x100014708, symSize: 0x38 }
  - { offset: 0x2A04D, size: 0x8, addend: 0x0, symName: __ZN5boost4asio9execution6detail17any_executor_base10require_fnINS1_12any_executorIJNS1_12context_as_tIRNS0_17execution_contextEEENS2_8blocking7never_tILi0EEENS1_11prefer_onlyINSA_10possibly_tILi0EEEEENSD_INS2_16outstanding_work9tracked_tILi0EEEEENSD_INSH_11untracked_tILi0EEEEENSD_INS2_12relationship6fork_tILi0EEEEENSD_INSO_14continuation_tILi0EEEEEEEEvSG_EET_PKvSY_, symObjAddr: 0x13970, symBinAddr: 0x100014740, symSize: 0x38 }
  - { offset: 0x2A097, size: 0x8, addend: 0x0, symName: __ZN5boost4asio9execution6detail17any_executor_base9prefer_fnINS1_12any_executorIJNS1_12context_as_tIRNS0_17execution_contextEEENS2_8blocking7never_tILi0EEENS1_11prefer_onlyINSA_10possibly_tILi0EEEEENSD_INS2_16outstanding_work9tracked_tILi0EEEEENSD_INSH_11untracked_tILi0EEEEENSD_INS2_12relationship6fork_tILi0EEEEENSD_INSO_14continuation_tILi0EEEEEEEEvSG_EET_PKvSY_, symObjAddr: 0x139A8, symBinAddr: 0x100014778, symSize: 0x38 }
  - { offset: 0x2A0E1, size: 0x8, addend: 0x0, symName: __ZN5boost4asio9execution6detail17any_executor_base8query_fnIvNS1_11prefer_onlyINS2_16outstanding_work9tracked_tILi0EEEEEEEvPvPKvSC_, symObjAddr: 0x139E0, symBinAddr: 0x1000147B0, symSize: 0x38 }
  - { offset: 0x2A131, size: 0x8, addend: 0x0, symName: __ZN5boost4asio9execution6detail17any_executor_base10require_fnINS1_12any_executorIJNS1_12context_as_tIRNS0_17execution_contextEEENS2_8blocking7never_tILi0EEENS1_11prefer_onlyINSA_10possibly_tILi0EEEEENSD_INS2_16outstanding_work9tracked_tILi0EEEEENSD_INSH_11untracked_tILi0EEEEENSD_INS2_12relationship6fork_tILi0EEEEENSD_INSO_14continuation_tILi0EEEEEEEEvSK_EET_PKvSY_, symObjAddr: 0x13A18, symBinAddr: 0x1000147E8, symSize: 0x38 }
  - { offset: 0x2A17B, size: 0x8, addend: 0x0, symName: __ZN5boost4asio9execution6detail17any_executor_base9prefer_fnINS1_12any_executorIJNS1_12context_as_tIRNS0_17execution_contextEEENS2_8blocking7never_tILi0EEENS1_11prefer_onlyINSA_10possibly_tILi0EEEEENSD_INS2_16outstanding_work9tracked_tILi0EEEEENSD_INSH_11untracked_tILi0EEEEENSD_INS2_12relationship6fork_tILi0EEEEENSD_INSO_14continuation_tILi0EEEEEEEEvSK_EET_PKvSY_, symObjAddr: 0x13A50, symBinAddr: 0x100014820, symSize: 0x38 }
  - { offset: 0x2A1C5, size: 0x8, addend: 0x0, symName: __ZN5boost4asio9execution6detail17any_executor_base8query_fnIvNS1_11prefer_onlyINS2_16outstanding_work11untracked_tILi0EEEEEEEvPvPKvSC_, symObjAddr: 0x13A88, symBinAddr: 0x100014858, symSize: 0x38 }
  - { offset: 0x2A215, size: 0x8, addend: 0x0, symName: __ZN5boost4asio9execution6detail17any_executor_base10require_fnINS1_12any_executorIJNS1_12context_as_tIRNS0_17execution_contextEEENS2_8blocking7never_tILi0EEENS1_11prefer_onlyINSA_10possibly_tILi0EEEEENSD_INS2_16outstanding_work9tracked_tILi0EEEEENSD_INSH_11untracked_tILi0EEEEENSD_INS2_12relationship6fork_tILi0EEEEENSD_INSO_14continuation_tILi0EEEEEEEEvSN_EET_PKvSY_, symObjAddr: 0x13AC0, symBinAddr: 0x100014890, symSize: 0x38 }
  - { offset: 0x2A25F, size: 0x8, addend: 0x0, symName: __ZN5boost4asio9execution6detail17any_executor_base9prefer_fnINS1_12any_executorIJNS1_12context_as_tIRNS0_17execution_contextEEENS2_8blocking7never_tILi0EEENS1_11prefer_onlyINSA_10possibly_tILi0EEEEENSD_INS2_16outstanding_work9tracked_tILi0EEEEENSD_INSH_11untracked_tILi0EEEEENSD_INS2_12relationship6fork_tILi0EEEEENSD_INSO_14continuation_tILi0EEEEEEEEvSN_EET_PKvSY_, symObjAddr: 0x13AF8, symBinAddr: 0x1000148C8, symSize: 0x38 }
  - { offset: 0x2A2A9, size: 0x8, addend: 0x0, symName: __ZN5boost4asio9execution6detail17any_executor_base8query_fnIvNS1_11prefer_onlyINS2_12relationship6fork_tILi0EEEEEEEvPvPKvSC_, symObjAddr: 0x13B30, symBinAddr: 0x100014900, symSize: 0x38 }
  - { offset: 0x2A2F9, size: 0x8, addend: 0x0, symName: __ZN5boost4asio9execution6detail17any_executor_base10require_fnINS1_12any_executorIJNS1_12context_as_tIRNS0_17execution_contextEEENS2_8blocking7never_tILi0EEENS1_11prefer_onlyINSA_10possibly_tILi0EEEEENSD_INS2_16outstanding_work9tracked_tILi0EEEEENSD_INSH_11untracked_tILi0EEEEENSD_INS2_12relationship6fork_tILi0EEEEENSD_INSO_14continuation_tILi0EEEEEEEEvSR_EET_PKvSY_, symObjAddr: 0x13B68, symBinAddr: 0x100014938, symSize: 0x38 }
  - { offset: 0x2A343, size: 0x8, addend: 0x0, symName: __ZN5boost4asio9execution6detail17any_executor_base9prefer_fnINS1_12any_executorIJNS1_12context_as_tIRNS0_17execution_contextEEENS2_8blocking7never_tILi0EEENS1_11prefer_onlyINSA_10possibly_tILi0EEEEENSD_INS2_16outstanding_work9tracked_tILi0EEEEENSD_INSH_11untracked_tILi0EEEEENSD_INS2_12relationship6fork_tILi0EEEEENSD_INSO_14continuation_tILi0EEEEEEEEvSR_EET_PKvSY_, symObjAddr: 0x13BA0, symBinAddr: 0x100014970, symSize: 0x38 }
  - { offset: 0x2A38D, size: 0x8, addend: 0x0, symName: __ZN5boost4asio9execution6detail17any_executor_base8query_fnIvNS1_11prefer_onlyINS2_12relationship14continuation_tILi0EEEEEEEvPvPKvSC_, symObjAddr: 0x13BD8, symBinAddr: 0x1000149A8, symSize: 0x38 }
  - { offset: 0x2A3DD, size: 0x8, addend: 0x0, symName: __ZN5boost4asio9execution6detail17any_executor_base10require_fnINS1_12any_executorIJNS1_12context_as_tIRNS0_17execution_contextEEENS2_8blocking7never_tILi0EEENS1_11prefer_onlyINSA_10possibly_tILi0EEEEENSD_INS2_16outstanding_work9tracked_tILi0EEEEENSD_INSH_11untracked_tILi0EEEEENSD_INS2_12relationship6fork_tILi0EEEEENSD_INSO_14continuation_tILi0EEEEEEEEvSU_EET_PKvSY_, symObjAddr: 0x13C10, symBinAddr: 0x1000149E0, symSize: 0x38 }
  - { offset: 0x2A427, size: 0x8, addend: 0x0, symName: __ZN5boost4asio9execution6detail17any_executor_base9prefer_fnINS1_12any_executorIJNS1_12context_as_tIRNS0_17execution_contextEEENS2_8blocking7never_tILi0EEENS1_11prefer_onlyINSA_10possibly_tILi0EEEEENSD_INS2_16outstanding_work9tracked_tILi0EEEEENSD_INSH_11untracked_tILi0EEEEENSD_INS2_12relationship6fork_tILi0EEEEENSD_INSO_14continuation_tILi0EEEEEEEEvSU_EET_PKvSY_, symObjAddr: 0x13C48, symBinAddr: 0x100014A18, symSize: 0x38 }
  - { offset: 0x2A477, size: 0x8, addend: 0x0, symName: __ZN5boost4asio9execution6detail17any_executor_base13query_fn_implIvNS1_12context_as_tIRNS0_17execution_contextEEEEEvPvPKvSB_PNSt3__19enable_ifIXsr7is_sameIT_vEE5valueEvE4typeE, symObjAddr: 0x13C80, symBinAddr: 0x100014A50, symSize: 0x38 }
  - { offset: 0x2A4D2, size: 0x8, addend: 0x0, symName: __ZN5boost4asio9execution6detail17any_executor_base13query_fn_voidEPvPKvS6_, symObjAddr: 0x13CB8, symBinAddr: 0x100014A88, symSize: 0x54 }
  - { offset: 0x2A517, size: 0x8, addend: 0x0, symName: __ZN5boost4asio9execution12bad_executorC1Ev, symObjAddr: 0x13D0C, symBinAddr: 0x100014ADC, symSize: 0x2C }
  - { offset: 0x2A543, size: 0x8, addend: 0x0, symName: __ZN5boost4asio9execution12bad_executorD1Ev, symObjAddr: 0x13DA4, symBinAddr: 0x100014B74, symSize: 0x2C }
  - { offset: 0x2A56F, size: 0x8, addend: 0x0, symName: __ZN5boost4asio9execution12bad_executorC2Ev, symObjAddr: 0x13DD0, symBinAddr: 0x100014BA0, symSize: 0x3C }
  - { offset: 0x2A59B, size: 0x8, addend: 0x0, symName: __ZN5boost4asio9execution12bad_executorD0Ev, symObjAddr: 0x13E0C, symBinAddr: 0x100014BDC, symSize: 0x30 }
  - { offset: 0x2A5C7, size: 0x8, addend: 0x0, symName: __ZNK5boost4asio9execution12bad_executor4whatEv, symObjAddr: 0x13E3C, symBinAddr: 0x100014C0C, symSize: 0x18 }
  - { offset: 0x2A5EF, size: 0x8, addend: 0x0, symName: __ZN5boost10wrapexceptINS_4asio9execution12bad_executorEEC1ERKS3_, symObjAddr: 0x13E54, symBinAddr: 0x100014C24, symSize: 0x34 }
  - { offset: 0x2A627, size: 0x8, addend: 0x0, symName: __ZN5boost10wrapexceptINS_4asio9execution12bad_executorEED1Ev, symObjAddr: 0x13E88, symBinAddr: 0x100014C58, symSize: 0x2C }
  - { offset: 0x2A653, size: 0x8, addend: 0x0, symName: __ZN5boost10wrapexceptINS_4asio9execution12bad_executorEEC2ERKS3_, symObjAddr: 0x13EB4, symBinAddr: 0x100014C84, symSize: 0xCC }
  - { offset: 0x2A68B, size: 0x8, addend: 0x0, symName: __ZN5boost4asio9execution12bad_executorC2ERKS2_, symObjAddr: 0x13F80, symBinAddr: 0x100014D50, symSize: 0x44 }
  - { offset: 0x2A6C0, size: 0x8, addend: 0x0, symName: __ZN5boost10wrapexceptINS_4asio9execution12bad_executorEE9copy_fromEPKv, symObjAddr: 0x13FC4, symBinAddr: 0x100014D94, symSize: 0x14 }
  - { offset: 0x2A6F0, size: 0x8, addend: 0x0, symName: __ZN5boost4asio9execution12bad_executorD2Ev, symObjAddr: 0x13FD8, symBinAddr: 0x100014DA8, symSize: 0x2C }
  - { offset: 0x2A71C, size: 0x8, addend: 0x0, symName: __ZNK5boost10wrapexceptINS_4asio9execution12bad_executorEE5cloneEv, symObjAddr: 0x14004, symBinAddr: 0x100014DD4, symSize: 0xE4 }
  - { offset: 0x2A75E, size: 0x8, addend: 0x0, symName: __ZNK5boost10wrapexceptINS_4asio9execution12bad_executorEE7rethrowEv, symObjAddr: 0x140E8, symBinAddr: 0x100014EB8, symSize: 0x6C }
  - { offset: 0x2A784, size: 0x8, addend: 0x0, symName: __ZN5boost10wrapexceptINS_4asio9execution12bad_executorEED0Ev, symObjAddr: 0x14154, symBinAddr: 0x100014F24, symSize: 0x30 }
  - { offset: 0x2A7B0, size: 0x8, addend: 0x0, symName: __ZThn8_N5boost10wrapexceptINS_4asio9execution12bad_executorEED1Ev, symObjAddr: 0x14184, symBinAddr: 0x100014F54, symSize: 0x1C }
  - { offset: 0x2A7C6, size: 0x8, addend: 0x0, symName: __ZThn8_N5boost10wrapexceptINS_4asio9execution12bad_executorEED0Ev, symObjAddr: 0x141A0, symBinAddr: 0x100014F70, symSize: 0x18 }
  - { offset: 0x2A7DC, size: 0x8, addend: 0x0, symName: __ZThn16_N5boost10wrapexceptINS_4asio9execution12bad_executorEED1Ev, symObjAddr: 0x141B8, symBinAddr: 0x100014F88, symSize: 0x1C }
  - { offset: 0x2A7F2, size: 0x8, addend: 0x0, symName: __ZThn16_N5boost10wrapexceptINS_4asio9execution12bad_executorEED0Ev, symObjAddr: 0x141D4, symBinAddr: 0x100014FA4, symSize: 0x18 }
  - { offset: 0x2A80E, size: 0x8, addend: 0x0, symName: __ZN5boost10wrapexceptINS_4asio9execution12bad_executorEEC1ERKS4_, symObjAddr: 0x141EC, symBinAddr: 0x100014FBC, symSize: 0x34 }
  - { offset: 0x2A84F, size: 0x8, addend: 0x0, symName: __ZN5boost10wrapexceptINS_4asio9execution12bad_executorEE7deleterD1Ev, symObjAddr: 0x14220, symBinAddr: 0x100014FF0, symSize: 0x2C }
  - { offset: 0x2A879, size: 0x8, addend: 0x0, symName: __ZN5boost10wrapexceptINS_4asio9execution12bad_executorEEC2ERKS4_, symObjAddr: 0x1424C, symBinAddr: 0x10001501C, symSize: 0xAC }
  - { offset: 0x2A8AE, size: 0x8, addend: 0x0, symName: __ZN5boost10wrapexceptINS_4asio9execution12bad_executorEE7deleterD2Ev, symObjAddr: 0x142F8, symBinAddr: 0x1000150C8, symSize: 0x58 }
  - { offset: 0x2A8D8, size: 0x8, addend: 0x0, symName: __ZN5boost10wrapexceptINS_4asio9execution12bad_executorEED2Ev, symObjAddr: 0x14350, symBinAddr: 0x100015120, symSize: 0x44 }
  - { offset: 0x2A904, size: 0x8, addend: 0x0, symName: __ZN5boost4asio9execution6detail17any_executor_base15require_fn_implINS1_12any_executorIJNS1_12context_as_tIRNS0_17execution_contextEEENS2_8blocking7never_tILi0EEENS1_11prefer_onlyINSA_10possibly_tILi0EEEEENSD_INS2_16outstanding_work9tracked_tILi0EEEEENSD_INSH_11untracked_tILi0EEEEENSD_INS2_12relationship6fork_tILi0EEEEENSD_INSO_14continuation_tILi0EEEEEEEEvS9_EET_PKvSY_PNSt3__19enable_ifIXsr7is_sameIT0_vEE5valueEvE4typeE, symObjAddr: 0x14394, symBinAddr: 0x100015164, symSize: 0x58 }
  - { offset: 0x2A960, size: 0x8, addend: 0x0, symName: __ZN5boost4asio9execution6detail17any_executor_base14prefer_fn_implINS1_12any_executorIJNS1_12context_as_tIRNS0_17execution_contextEEENS2_8blocking7never_tILi0EEENS1_11prefer_onlyINSA_10possibly_tILi0EEEEENSD_INS2_16outstanding_work9tracked_tILi0EEEEENSD_INSH_11untracked_tILi0EEEEENSD_INS2_12relationship6fork_tILi0EEEEENSD_INSO_14continuation_tILi0EEEEEEEEvS9_EET_PKvSY_PNSt3__19enable_ifIXsr7is_sameIT0_vEE5valueEvE4typeE, symObjAddr: 0x143EC, symBinAddr: 0x1000151BC, symSize: 0x58 }
  - { offset: 0x2A9BC, size: 0x8, addend: 0x0, symName: __ZN5boost4asio9execution6detail17any_executor_base13query_fn_implIvNS2_8blocking7never_tILi0EEEEEvPvPKvSA_PNSt3__19enable_ifIXsr7is_sameIT_vEE5valueEvE4typeE, symObjAddr: 0x14444, symBinAddr: 0x100015214, symSize: 0x38 }
  - { offset: 0x2AA17, size: 0x8, addend: 0x0, symName: __ZN5boost4asio9execution6detail17any_executor_base15require_fn_implINS1_12any_executorIJNS1_12context_as_tIRNS0_17execution_contextEEENS2_8blocking7never_tILi0EEENS1_11prefer_onlyINSA_10possibly_tILi0EEEEENSD_INS2_16outstanding_work9tracked_tILi0EEEEENSD_INSH_11untracked_tILi0EEEEENSD_INS2_12relationship6fork_tILi0EEEEENSD_INSO_14continuation_tILi0EEEEEEEEvSC_EET_PKvSY_PNSt3__19enable_ifIXsr7is_sameIT0_vEE5valueEvE4typeE, symObjAddr: 0x1447C, symBinAddr: 0x10001524C, symSize: 0x58 }
  - { offset: 0x2AA73, size: 0x8, addend: 0x0, symName: __ZN5boost4asio9execution6detail17any_executor_base14prefer_fn_implINS1_12any_executorIJNS1_12context_as_tIRNS0_17execution_contextEEENS2_8blocking7never_tILi0EEENS1_11prefer_onlyINSA_10possibly_tILi0EEEEENSD_INS2_16outstanding_work9tracked_tILi0EEEEENSD_INSH_11untracked_tILi0EEEEENSD_INS2_12relationship6fork_tILi0EEEEENSD_INSO_14continuation_tILi0EEEEEEEEvSC_EET_PKvSY_PNSt3__19enable_ifIXsr7is_sameIT0_vEE5valueEvE4typeE, symObjAddr: 0x144D4, symBinAddr: 0x1000152A4, symSize: 0x58 }
  - { offset: 0x2AACF, size: 0x8, addend: 0x0, symName: __ZN5boost4asio9execution6detail17any_executor_base13query_fn_implIvNS1_11prefer_onlyINS2_8blocking10possibly_tILi0EEEEEEEvPvPKvSC_PNSt3__19enable_ifIXsr7is_sameIT_vEE5valueEvE4typeE, symObjAddr: 0x1452C, symBinAddr: 0x1000152FC, symSize: 0x38 }
  - { offset: 0x2AB2A, size: 0x8, addend: 0x0, symName: __ZN5boost4asio9execution6detail17any_executor_base15require_fn_implINS1_12any_executorIJNS1_12context_as_tIRNS0_17execution_contextEEENS2_8blocking7never_tILi0EEENS1_11prefer_onlyINSA_10possibly_tILi0EEEEENSD_INS2_16outstanding_work9tracked_tILi0EEEEENSD_INSH_11untracked_tILi0EEEEENSD_INS2_12relationship6fork_tILi0EEEEENSD_INSO_14continuation_tILi0EEEEEEEEvSG_EET_PKvSY_PNSt3__19enable_ifIXsr7is_sameIT0_vEE5valueEvE4typeE, symObjAddr: 0x14564, symBinAddr: 0x100015334, symSize: 0x58 }
  - { offset: 0x2AB86, size: 0x8, addend: 0x0, symName: __ZN5boost4asio9execution6detail17any_executor_base14prefer_fn_implINS1_12any_executorIJNS1_12context_as_tIRNS0_17execution_contextEEENS2_8blocking7never_tILi0EEENS1_11prefer_onlyINSA_10possibly_tILi0EEEEENSD_INS2_16outstanding_work9tracked_tILi0EEEEENSD_INSH_11untracked_tILi0EEEEENSD_INS2_12relationship6fork_tILi0EEEEENSD_INSO_14continuation_tILi0EEEEEEEEvSG_EET_PKvSY_PNSt3__19enable_ifIXsr7is_sameIT0_vEE5valueEvE4typeE, symObjAddr: 0x145BC, symBinAddr: 0x10001538C, symSize: 0x58 }
  - { offset: 0x2ABE2, size: 0x8, addend: 0x0, symName: __ZN5boost4asio9execution6detail17any_executor_base13query_fn_implIvNS1_11prefer_onlyINS2_16outstanding_work9tracked_tILi0EEEEEEEvPvPKvSC_PNSt3__19enable_ifIXsr7is_sameIT_vEE5valueEvE4typeE, symObjAddr: 0x14614, symBinAddr: 0x1000153E4, symSize: 0x38 }
  - { offset: 0x2AC3D, size: 0x8, addend: 0x0, symName: __ZN5boost4asio9execution6detail17any_executor_base15require_fn_implINS1_12any_executorIJNS1_12context_as_tIRNS0_17execution_contextEEENS2_8blocking7never_tILi0EEENS1_11prefer_onlyINSA_10possibly_tILi0EEEEENSD_INS2_16outstanding_work9tracked_tILi0EEEEENSD_INSH_11untracked_tILi0EEEEENSD_INS2_12relationship6fork_tILi0EEEEENSD_INSO_14continuation_tILi0EEEEEEEEvSK_EET_PKvSY_PNSt3__19enable_ifIXsr7is_sameIT0_vEE5valueEvE4typeE, symObjAddr: 0x1464C, symBinAddr: 0x10001541C, symSize: 0x58 }
  - { offset: 0x2AC99, size: 0x8, addend: 0x0, symName: __ZN5boost4asio9execution6detail17any_executor_base14prefer_fn_implINS1_12any_executorIJNS1_12context_as_tIRNS0_17execution_contextEEENS2_8blocking7never_tILi0EEENS1_11prefer_onlyINSA_10possibly_tILi0EEEEENSD_INS2_16outstanding_work9tracked_tILi0EEEEENSD_INSH_11untracked_tILi0EEEEENSD_INS2_12relationship6fork_tILi0EEEEENSD_INSO_14continuation_tILi0EEEEEEEEvSK_EET_PKvSY_PNSt3__19enable_ifIXsr7is_sameIT0_vEE5valueEvE4typeE, symObjAddr: 0x146A4, symBinAddr: 0x100015474, symSize: 0x58 }
  - { offset: 0x2ACF5, size: 0x8, addend: 0x0, symName: __ZN5boost4asio9execution6detail17any_executor_base13query_fn_implIvNS1_11prefer_onlyINS2_16outstanding_work11untracked_tILi0EEEEEEEvPvPKvSC_PNSt3__19enable_ifIXsr7is_sameIT_vEE5valueEvE4typeE, symObjAddr: 0x146FC, symBinAddr: 0x1000154CC, symSize: 0x38 }
  - { offset: 0x2AD50, size: 0x8, addend: 0x0, symName: __ZN5boost4asio9execution6detail17any_executor_base15require_fn_implINS1_12any_executorIJNS1_12context_as_tIRNS0_17execution_contextEEENS2_8blocking7never_tILi0EEENS1_11prefer_onlyINSA_10possibly_tILi0EEEEENSD_INS2_16outstanding_work9tracked_tILi0EEEEENSD_INSH_11untracked_tILi0EEEEENSD_INS2_12relationship6fork_tILi0EEEEENSD_INSO_14continuation_tILi0EEEEEEEEvSN_EET_PKvSY_PNSt3__19enable_ifIXsr7is_sameIT0_vEE5valueEvE4typeE, symObjAddr: 0x14734, symBinAddr: 0x100015504, symSize: 0x58 }
  - { offset: 0x2ADAC, size: 0x8, addend: 0x0, symName: __ZN5boost4asio9execution6detail17any_executor_base14prefer_fn_implINS1_12any_executorIJNS1_12context_as_tIRNS0_17execution_contextEEENS2_8blocking7never_tILi0EEENS1_11prefer_onlyINSA_10possibly_tILi0EEEEENSD_INS2_16outstanding_work9tracked_tILi0EEEEENSD_INSH_11untracked_tILi0EEEEENSD_INS2_12relationship6fork_tILi0EEEEENSD_INSO_14continuation_tILi0EEEEEEEEvSN_EET_PKvSY_PNSt3__19enable_ifIXsr7is_sameIT0_vEE5valueEvE4typeE, symObjAddr: 0x1478C, symBinAddr: 0x10001555C, symSize: 0x58 }
  - { offset: 0x2AE08, size: 0x8, addend: 0x0, symName: __ZN5boost4asio9execution6detail17any_executor_base13query_fn_implIvNS1_11prefer_onlyINS2_12relationship6fork_tILi0EEEEEEEvPvPKvSC_PNSt3__19enable_ifIXsr7is_sameIT_vEE5valueEvE4typeE, symObjAddr: 0x147E4, symBinAddr: 0x1000155B4, symSize: 0x38 }
  - { offset: 0x2AE63, size: 0x8, addend: 0x0, symName: __ZN5boost4asio9execution6detail17any_executor_base15require_fn_implINS1_12any_executorIJNS1_12context_as_tIRNS0_17execution_contextEEENS2_8blocking7never_tILi0EEENS1_11prefer_onlyINSA_10possibly_tILi0EEEEENSD_INS2_16outstanding_work9tracked_tILi0EEEEENSD_INSH_11untracked_tILi0EEEEENSD_INS2_12relationship6fork_tILi0EEEEENSD_INSO_14continuation_tILi0EEEEEEEEvSR_EET_PKvSY_PNSt3__19enable_ifIXsr7is_sameIT0_vEE5valueEvE4typeE, symObjAddr: 0x1481C, symBinAddr: 0x1000155EC, symSize: 0x58 }
  - { offset: 0x2AEBF, size: 0x8, addend: 0x0, symName: __ZN5boost4asio9execution6detail17any_executor_base14prefer_fn_implINS1_12any_executorIJNS1_12context_as_tIRNS0_17execution_contextEEENS2_8blocking7never_tILi0EEENS1_11prefer_onlyINSA_10possibly_tILi0EEEEENSD_INS2_16outstanding_work9tracked_tILi0EEEEENSD_INSH_11untracked_tILi0EEEEENSD_INS2_12relationship6fork_tILi0EEEEENSD_INSO_14continuation_tILi0EEEEEEEEvSR_EET_PKvSY_PNSt3__19enable_ifIXsr7is_sameIT0_vEE5valueEvE4typeE, symObjAddr: 0x14874, symBinAddr: 0x100015644, symSize: 0x58 }
  - { offset: 0x2AF1B, size: 0x8, addend: 0x0, symName: __ZN5boost4asio9execution6detail17any_executor_base13query_fn_implIvNS1_11prefer_onlyINS2_12relationship14continuation_tILi0EEEEEEEvPvPKvSC_PNSt3__19enable_ifIXsr7is_sameIT_vEE5valueEvE4typeE, symObjAddr: 0x148CC, symBinAddr: 0x10001569C, symSize: 0x38 }
  - { offset: 0x2AF76, size: 0x8, addend: 0x0, symName: __ZN5boost4asio9execution6detail17any_executor_base15require_fn_implINS1_12any_executorIJNS1_12context_as_tIRNS0_17execution_contextEEENS2_8blocking7never_tILi0EEENS1_11prefer_onlyINSA_10possibly_tILi0EEEEENSD_INS2_16outstanding_work9tracked_tILi0EEEEENSD_INSH_11untracked_tILi0EEEEENSD_INS2_12relationship6fork_tILi0EEEEENSD_INSO_14continuation_tILi0EEEEEEEEvSU_EET_PKvSY_PNSt3__19enable_ifIXsr7is_sameIT0_vEE5valueEvE4typeE, symObjAddr: 0x14904, symBinAddr: 0x1000156D4, symSize: 0x58 }
  - { offset: 0x2AFD2, size: 0x8, addend: 0x0, symName: __ZN5boost4asio9execution6detail17any_executor_base14prefer_fn_implINS1_12any_executorIJNS1_12context_as_tIRNS0_17execution_contextEEENS2_8blocking7never_tILi0EEENS1_11prefer_onlyINSA_10possibly_tILi0EEEEENSD_INS2_16outstanding_work9tracked_tILi0EEEEENSD_INSH_11untracked_tILi0EEEEENSD_INS2_12relationship6fork_tILi0EEEEENSD_INSO_14continuation_tILi0EEEEEEEEvSU_EET_PKvSY_PNSt3__19enable_ifIXsr7is_sameIT0_vEE5valueEvE4typeE, symObjAddr: 0x1495C, symBinAddr: 0x10001572C, symSize: 0x58 }
  - { offset: 0x2B02E, size: 0x8, addend: 0x0, symName: __ZN5boost4asio9execution6detail17any_executor_base14prefer_fn_implINS1_12any_executorIJNS1_12context_as_tIRNS0_17execution_contextEEENS2_8blocking7never_tILi0EEENS1_11prefer_onlyINSA_10possibly_tILi0EEEEENSD_INS2_16outstanding_work9tracked_tILi0EEEEENSD_INSH_11untracked_tILi0EEEEENSD_INS2_12relationship6fork_tILi0EEEEENSD_INSO_14continuation_tILi0EEEEEEEENS0_10io_context19basic_executor_typeINSt3__19allocatorIvEELm0EEES9_EET_PKvS14_z, symObjAddr: 0x149B4, symBinAddr: 0x100015784, symSize: 0x38 }
  - { offset: 0x2B075, size: 0x8, addend: 0x0, symName: __ZN5boost4asio9execution6detail17any_executor_base13query_fn_implINS0_10io_context19basic_executor_typeINSt3__19allocatorIvEELm0EEENS2_8blocking7never_tILi0EEEEEvPvPKvSG_PNS7_9enable_ifIXntsr7is_sameIT_vEE5valueEvE4typeE, symObjAddr: 0x149EC, symBinAddr: 0x1000157BC, symSize: 0x3C }
  - { offset: 0x2B0DA, size: 0x8, addend: 0x0, symName: __ZN5boost4asio9execution6detail17any_executor_base17query_fn_non_voidINS0_10io_context19basic_executor_typeINSt3__19allocatorIvEELm0EEENS2_8blocking7never_tILi0EEEEEvPvPKvSG_PNS7_9enable_ifIXaaaaaasr5boost4asio9can_queryIRKT_RKT0_EE5valuentsr7is_sameINSL_29polymorphic_query_result_typeEvEE5valuentsr12is_referenceISO_EE5valuentsr9is_scalarISO_EE5valueEvE4typeE, symObjAddr: 0x14A28, symBinAddr: 0x1000157F8, symSize: 0x88 }
  - { offset: 0x2B13F, size: 0x8, addend: 0x0, symName: __ZNK19boost_asio_query_fn4implclIRKN5boost4asio10io_context19basic_executor_typeINSt3__19allocatorIvEELm0EEERKNS3_9execution6detail8blocking7never_tILi0EEEEENS6_9enable_ifIXeqsr11call_traitsIS0_T_FvT0_EEE8overloadLNS_13overload_typeE1EENS_11call_traitsIS0_SK_SM_vvvvE11result_typeEE4typeEOSK_OSL_, symObjAddr: 0x14AB0, symBinAddr: 0x100015880, symSize: 0x4C }
  - { offset: 0x2B199, size: 0x8, addend: 0x0, symName: __ZN5boost4asio9execution6detail17any_executor_base15require_fn_implINS1_12any_executorIJNS1_12context_as_tIRNS0_17execution_contextEEENS2_8blocking7never_tILi0EEENS1_11prefer_onlyINSA_10possibly_tILi0EEEEENSD_INS2_16outstanding_work9tracked_tILi0EEEEENSD_INSH_11untracked_tILi0EEEEENSD_INS2_12relationship6fork_tILi0EEEEENSD_INSO_14continuation_tILi0EEEEEEEENS0_10io_context19basic_executor_typeINSt3__19allocatorIvEELm0EEESC_EET_PKvS14_PNSY_9enable_ifIXaantsr7is_sameIT0_vEE5valuesrT1_13is_requirableEvE4typeE, symObjAddr: 0x14AFC, symBinAddr: 0x1000158CC, symSize: 0x84 }
  - { offset: 0x2B1F8, size: 0x8, addend: 0x0, symName: __ZNK21boost_asio_require_fn4implclIRKN5boost4asio10io_context19basic_executor_typeINSt3__19allocatorIvEELm0EEERKNS3_9execution6detail8blocking7never_tILi0EEEEENS6_9enable_ifIXeqsr11call_traitsIS0_T_FvT0_EEE8overloadLNS_13overload_typeE1EENS_11call_traitsIS0_SK_SM_vvvvvE11result_typeEE4typeEOSK_OSL_, symObjAddr: 0x14B80, symBinAddr: 0x100015950, symSize: 0x34 }
  - { offset: 0x2B24E, size: 0x8, addend: 0x0, symName: __ZN5boost4asio9execution12any_executorIJNS1_12context_as_tIRNS0_17execution_contextEEENS1_6detail8blocking7never_tILi0EEENS1_11prefer_onlyINS8_10possibly_tILi0EEEEENSB_INS7_16outstanding_work9tracked_tILi0EEEEENSB_INSF_11untracked_tILi0EEEEENSB_INS7_12relationship6fork_tILi0EEEEENSB_INSM_14continuation_tILi0EEEEEEEC1INS0_10io_context19basic_executor_typeINSt3__19allocatorIvEELm0EEEEET_PNSX_9enable_ifIXsr13conditional_tIXaantsr7is_sameIS11_ST_EE5valuentsr10is_base_ofINS7_17any_executor_baseES11_EE5valueENS7_24is_valid_target_executorIS11_FvS6_SA_SE_SI_SL_SP_SS_EEENSX_17integral_constantIbLb0EEEEE5valueEvE4typeE, symObjAddr: 0x14BB4, symBinAddr: 0x100015984, symSize: 0x3C }
  - { offset: 0x2B29C, size: 0x8, addend: 0x0, symName: __ZNK5boost4asio10io_context19basic_executor_typeINSt3__19allocatorIvEELm0EE7requireENS0_9execution6detail8blocking7never_tILi0EEE, symObjAddr: 0x14BF0, symBinAddr: 0x1000159C0, symSize: 0x58 }
  - { offset: 0x2B2CD, size: 0x8, addend: 0x0, symName: __ZN5boost4asio10io_context19basic_executor_typeINSt3__19allocatorIvEELm0EEC1EPS1_RKS5_m, symObjAddr: 0x14C48, symBinAddr: 0x100015A18, symSize: 0x44 }
  - { offset: 0x2B324, size: 0x8, addend: 0x0, symName: __ZN5boost4asio10io_context19basic_executor_typeINSt3__19allocatorIvEELm0EEC2EPS1_RKS5_m, symObjAddr: 0x14C8C, symBinAddr: 0x100015A5C, symSize: 0x30 }
  - { offset: 0x2B381, size: 0x8, addend: 0x0, symName: __ZN5boost4asio9execution6detail17any_executor_base14prefer_fn_implINS1_12any_executorIJNS1_12context_as_tIRNS0_17execution_contextEEENS2_8blocking7never_tILi0EEENS1_11prefer_onlyINSA_10possibly_tILi0EEEEENSD_INS2_16outstanding_work9tracked_tILi0EEEEENSD_INSH_11untracked_tILi0EEEEENSD_INS2_12relationship6fork_tILi0EEEEENSD_INSO_14continuation_tILi0EEEEEEEENS0_10io_context19basic_executor_typeINSt3__19allocatorIvEELm0EEESC_EET_PKvS14_PNSY_9enable_ifIXaantsr7is_sameIT0_vEE5valuesrT1_13is_preferableEvE4typeE, symObjAddr: 0x14CBC, symBinAddr: 0x100015A8C, symSize: 0x84 }
  - { offset: 0x2B3E0, size: 0x8, addend: 0x0, symName: __ZNK20boost_asio_prefer_fn4implclIRKN5boost4asio10io_context19basic_executor_typeINSt3__19allocatorIvEELm0EEERKNS3_9execution6detail8blocking7never_tILi0EEEEENS6_9enable_ifIXeqsr11call_traitsIS0_T_FvT0_EEE8overloadLNS_13overload_typeE1EENS_11call_traitsIS0_SK_SM_vvvvvvvE11result_typeEE4typeEOSK_OSL_, symObjAddr: 0x14D40, symBinAddr: 0x100015B10, symSize: 0x34 }
  - { offset: 0x2B436, size: 0x8, addend: 0x0, symName: __ZN5boost4asio9execution6detail17any_executor_base13query_fn_implINS0_10io_context19basic_executor_typeINSt3__19allocatorIvEELm0EEENS1_11prefer_onlyINS2_8blocking10possibly_tILi0EEEEEEEvPvPKvSI_PNS7_9enable_ifIXntsr7is_sameIT_vEE5valueEvE4typeE, symObjAddr: 0x14D74, symBinAddr: 0x100015B44, symSize: 0x3C }
  - { offset: 0x2B49B, size: 0x8, addend: 0x0, symName: __ZN5boost4asio9execution6detail17any_executor_base17query_fn_non_voidINS0_10io_context19basic_executor_typeINSt3__19allocatorIvEELm0EEENS1_11prefer_onlyINS2_8blocking10possibly_tILi0EEEEEEEvPvPKvSI_PNS7_9enable_ifIXaaaaaasr5boost4asio9can_queryIRKT_RKT0_EE5valuentsr7is_sameINSN_29polymorphic_query_result_typeEvEE5valuentsr12is_referenceISQ_EE5valuentsr9is_scalarISQ_EE5valueEvE4typeE, symObjAddr: 0x14DB0, symBinAddr: 0x100015B80, symSize: 0x88 }
  - { offset: 0x2B500, size: 0x8, addend: 0x0, symName: __ZNK19boost_asio_query_fn4implclIRKN5boost4asio10io_context19basic_executor_typeINSt3__19allocatorIvEELm0EEERKNS3_9execution11prefer_onlyINSC_6detail8blocking10possibly_tILi0EEEEEEENS6_9enable_ifIXeqsr11call_traitsIS0_T_FvT0_EEE8overloadLNS_13overload_typeE2EENS_11call_traitsIS0_SM_SO_vvvvE11result_typeEE4typeEOSM_OSN_, symObjAddr: 0x14E38, symBinAddr: 0x100015C08, symSize: 0x40 }
  - { offset: 0x2B554, size: 0x8, addend: 0x0, symName: __ZNK19boost_asio_query_fn4implclIRKN5boost4asio10io_context19basic_executor_typeINSt3__19allocatorIvEELm0EEERKNS3_9execution6detail8blocking10possibly_tILi0EEEEENS6_9enable_ifIXeqsr11call_traitsIS0_T_FvT0_EEE8overloadLNS_13overload_typeE1EENS_11call_traitsIS0_SK_SM_vvvvE11result_typeEE4typeEOSK_OSL_, symObjAddr: 0x14EBC, symBinAddr: 0x100015C8C, symSize: 0x4C }
  - { offset: 0x2B5A8, size: 0x8, addend: 0x0, symName: __ZN5boost4asio9execution6detail17any_executor_base15require_fn_implINS1_12any_executorIJNS1_12context_as_tIRNS0_17execution_contextEEENS2_8blocking7never_tILi0EEENS1_11prefer_onlyINSA_10possibly_tILi0EEEEENSD_INS2_16outstanding_work9tracked_tILi0EEEEENSD_INSH_11untracked_tILi0EEEEENSD_INS2_12relationship6fork_tILi0EEEEENSD_INSO_14continuation_tILi0EEEEEEEENS0_10io_context19basic_executor_typeINSt3__19allocatorIvEELm0EEESG_EET_PKvS14_z, symObjAddr: 0x14F08, symBinAddr: 0x100015CD8, symSize: 0x38 }
  - { offset: 0x2B5F5, size: 0x8, addend: 0x0, symName: __ZN5boost4asio9execution6detail17any_executor_base14prefer_fn_implINS1_12any_executorIJNS1_12context_as_tIRNS0_17execution_contextEEENS2_8blocking7never_tILi0EEENS1_11prefer_onlyINSA_10possibly_tILi0EEEEENSD_INS2_16outstanding_work9tracked_tILi0EEEEENSD_INSH_11untracked_tILi0EEEEENSD_INS2_12relationship6fork_tILi0EEEEENSD_INSO_14continuation_tILi0EEEEEEEENS0_10io_context19basic_executor_typeINSt3__19allocatorIvEELm0EEESG_EET_PKvS14_PNSY_9enable_ifIXaantsr7is_sameIT0_vEE5valuesrT1_13is_preferableEvE4typeE, symObjAddr: 0x14F40, symBinAddr: 0x100015D10, symSize: 0x84 }
  - { offset: 0x2B64E, size: 0x8, addend: 0x0, symName: __ZNK20boost_asio_prefer_fn4implclIRKN5boost4asio10io_context19basic_executor_typeINSt3__19allocatorIvEELm0EEERKNS3_9execution11prefer_onlyINSC_6detail8blocking10possibly_tILi0EEEEEEENS6_9enable_ifIXeqsr11call_traitsIS0_T_FvT0_EEE8overloadLNS_13overload_typeE4EENS_11call_traitsIS0_SM_SO_vvvvvvvE11result_typeEE4typeEOSM_OSN_, symObjAddr: 0x14FC4, symBinAddr: 0x100015D94, symSize: 0x40 }
  - { offset: 0x2B6A4, size: 0x8, addend: 0x0, symName: __ZNK20boost_asio_prefer_fn4implclIRKN5boost4asio10io_context19basic_executor_typeINSt3__19allocatorIvEELm0EEERKNS3_9execution6detail8blocking10possibly_tILi0EEEEENS6_9enable_ifIXeqsr11call_traitsIS0_T_FvT0_EEE8overloadLNS_13overload_typeE1EENS_11call_traitsIS0_SK_SM_vvvvvvvE11result_typeEE4typeEOSK_OSL_, symObjAddr: 0x15048, symBinAddr: 0x100015E18, symSize: 0x34 }
  - { offset: 0x2B6FA, size: 0x8, addend: 0x0, symName: __ZNK5boost4asio10io_context19basic_executor_typeINSt3__19allocatorIvEELm0EE7requireENS0_9execution6detail8blocking10possibly_tILi0EEE, symObjAddr: 0x1507C, symBinAddr: 0x100015E4C, symSize: 0x58 }
  - { offset: 0x2B72B, size: 0x8, addend: 0x0, symName: __ZN5boost4asio9execution6detail17any_executor_base13query_fn_implINS0_10io_context19basic_executor_typeINSt3__19allocatorIvEELm0EEENS1_11prefer_onlyINS2_16outstanding_work9tracked_tILi0EEEEEEEvPvPKvSI_PNS7_9enable_ifIXntsr7is_sameIT_vEE5valueEvE4typeE, symObjAddr: 0x150D4, symBinAddr: 0x100015EA4, symSize: 0x3C }
  - { offset: 0x2B790, size: 0x8, addend: 0x0, symName: __ZN5boost4asio9execution6detail17any_executor_base17query_fn_non_voidINS0_10io_context19basic_executor_typeINSt3__19allocatorIvEELm0EEENS1_11prefer_onlyINS2_16outstanding_work9tracked_tILi0EEEEEEEvPvPKvSI_PNS7_9enable_ifIXaaaaaasr5boost4asio9can_queryIRKT_RKT0_EE5valuentsr7is_sameINSN_29polymorphic_query_result_typeEvEE5valuentsr12is_referenceISQ_EE5valuentsr9is_scalarISQ_EE5valueEvE4typeE, symObjAddr: 0x15110, symBinAddr: 0x100015EE0, symSize: 0x5C }
  - { offset: 0x2B7F5, size: 0x8, addend: 0x0, symName: __ZNK19boost_asio_query_fn4implclIRKN5boost4asio10io_context19basic_executor_typeINSt3__19allocatorIvEELm0EEERKNS3_9execution11prefer_onlyINSC_6detail16outstanding_work9tracked_tILi0EEEEEEENS6_9enable_ifIXeqsr11call_traitsIS0_T_FvT0_EEE8overloadLNS_13overload_typeE0EENS_11call_traitsIS0_SM_SO_vvvvE11result_typeEE4typeEOSM_OSN_, symObjAddr: 0x1516C, symBinAddr: 0x100015F3C, symSize: 0x30 }
  - { offset: 0x2B841, size: 0x8, addend: 0x0, symName: __ZN5boost4asio6detail18static_query_traitINS0_10io_context19basic_executor_typeINSt3__19allocatorIvEELm0EEENS0_9execution11prefer_onlyINS9_6detail16outstanding_work9tracked_tILi0EEEEEvE5valueEv, symObjAddr: 0x1519C, symBinAddr: 0x100015F6C, symSize: 0x20 }
  - { offset: 0x2B855, size: 0x8, addend: 0x0, symName: __ZN5boost4asio9execution6detail17any_executor_base15require_fn_implINS1_12any_executorIJNS1_12context_as_tIRNS0_17execution_contextEEENS2_8blocking7never_tILi0EEENS1_11prefer_onlyINSA_10possibly_tILi0EEEEENSD_INS2_16outstanding_work9tracked_tILi0EEEEENSD_INSH_11untracked_tILi0EEEEENSD_INS2_12relationship6fork_tILi0EEEEENSD_INSO_14continuation_tILi0EEEEEEEENS0_10io_context19basic_executor_typeINSt3__19allocatorIvEELm0EEESK_EET_PKvS14_z, symObjAddr: 0x151BC, symBinAddr: 0x100015F8C, symSize: 0x38 }
  - { offset: 0x2B8A2, size: 0x8, addend: 0x0, symName: __ZN5boost4asio9execution6detail17any_executor_base14prefer_fn_implINS1_12any_executorIJNS1_12context_as_tIRNS0_17execution_contextEEENS2_8blocking7never_tILi0EEENS1_11prefer_onlyINSA_10possibly_tILi0EEEEENSD_INS2_16outstanding_work9tracked_tILi0EEEEENSD_INSH_11untracked_tILi0EEEEENSD_INS2_12relationship6fork_tILi0EEEEENSD_INSO_14continuation_tILi0EEEEEEEENS0_10io_context19basic_executor_typeINSt3__19allocatorIvEELm0EEESK_EET_PKvS14_PNSY_9enable_ifIXaantsr7is_sameIT0_vEE5valuesrT1_13is_preferableEvE4typeE, symObjAddr: 0x151F4, symBinAddr: 0x100015FC4, symSize: 0x84 }
  - { offset: 0x2B8FB, size: 0x8, addend: 0x0, symName: __ZNK20boost_asio_prefer_fn4implclIRKN5boost4asio10io_context19basic_executor_typeINSt3__19allocatorIvEELm0EEERKNS3_9execution11prefer_onlyINSC_6detail16outstanding_work9tracked_tILi0EEEEEEENS6_9enable_ifIXeqsr11call_traitsIS0_T_FvT0_EEE8overloadLNS_13overload_typeE4EENS_11call_traitsIS0_SM_SO_vvvvvvvE11result_typeEE4typeEOSM_OSN_, symObjAddr: 0x15278, symBinAddr: 0x100016048, symSize: 0x40 }
  - { offset: 0x2B957, size: 0x8, addend: 0x0, symName: __ZN5boost4asio9execution12any_executorIJNS1_12context_as_tIRNS0_17execution_contextEEENS1_6detail8blocking7never_tILi0EEENS1_11prefer_onlyINS8_10possibly_tILi0EEEEENSB_INS7_16outstanding_work9tracked_tILi0EEEEENSB_INSF_11untracked_tILi0EEEEENSB_INS7_12relationship6fork_tILi0EEEEENSB_INSM_14continuation_tILi0EEEEEEEC1INS0_10io_context19basic_executor_typeINSt3__19allocatorIvEELm4EEEEET_PNSX_9enable_ifIXsr13conditional_tIXaantsr7is_sameIS11_ST_EE5valuentsr10is_base_ofINS7_17any_executor_baseES11_EE5valueENS7_24is_valid_target_executorIS11_FvS6_SA_SE_SI_SL_SP_SS_EEENSX_17integral_constantIbLb0EEEEE5valueEvE4typeE, symObjAddr: 0x152B8, symBinAddr: 0x100016088, symSize: 0x3C }
  - { offset: 0x2B9A5, size: 0x8, addend: 0x0, symName: __ZN5boost4asio10io_context19basic_executor_typeINSt3__19allocatorIvEELm4EED1Ev, symObjAddr: 0x152F4, symBinAddr: 0x1000160C4, symSize: 0x2C }
  - { offset: 0x2B9CF, size: 0x8, addend: 0x0, symName: __ZNK20boost_asio_prefer_fn4implclIRKN5boost4asio10io_context19basic_executor_typeINSt3__19allocatorIvEELm0EEERKNS3_9execution6detail16outstanding_work9tracked_tILi0EEEEENS6_9enable_ifIXeqsr11call_traitsIS0_T_FvT0_EEE8overloadLNS_13overload_typeE1EENS_11call_traitsIS0_SK_SM_vvvvvvvE11result_typeEE4typeEOSK_OSL_, symObjAddr: 0x15364, symBinAddr: 0x100016134, symSize: 0x34 }
  - { offset: 0x2BA25, size: 0x8, addend: 0x0, symName: __ZNK5boost4asio10io_context19basic_executor_typeINSt3__19allocatorIvEELm0EE7requireENS0_9execution6detail16outstanding_work9tracked_tILi0EEE, symObjAddr: 0x15398, symBinAddr: 0x100016168, symSize: 0x54 }
  - { offset: 0x2BA56, size: 0x8, addend: 0x0, symName: __ZN5boost4asio10io_context19basic_executor_typeINSt3__19allocatorIvEELm4EEC1EPS1_RKS5_m, symObjAddr: 0x153EC, symBinAddr: 0x1000161BC, symSize: 0x44 }
  - { offset: 0x2BAAD, size: 0x8, addend: 0x0, symName: __ZN5boost4asio10io_context19basic_executor_typeINSt3__19allocatorIvEELm4EEC2EPS1_RKS5_m, symObjAddr: 0x15430, symBinAddr: 0x100016200, symSize: 0x74 }
  - { offset: 0x2BB04, size: 0x8, addend: 0x0, symName: __ZNK5boost4asio10io_context19basic_executor_typeINSt3__19allocatorIvEELm4EE11context_ptrEv, symObjAddr: 0x154A4, symBinAddr: 0x100016274, symSize: 0x1C }
  - { offset: 0x2BB2A, size: 0x8, addend: 0x0, symName: __ZN5boost4asio9execution12any_executorIJNS1_12context_as_tIRNS0_17execution_contextEEENS1_6detail8blocking7never_tILi0EEENS1_11prefer_onlyINS8_10possibly_tILi0EEEEENSB_INS7_16outstanding_work9tracked_tILi0EEEEENSB_INSF_11untracked_tILi0EEEEENSB_INS7_12relationship6fork_tILi0EEEEENSB_INSM_14continuation_tILi0EEEEEEEC2INS0_10io_context19basic_executor_typeINSt3__19allocatorIvEELm4EEEEET_PNSX_9enable_ifIXsr13conditional_tIXaantsr7is_sameIS11_ST_EE5valuentsr10is_base_ofINS7_17any_executor_baseES11_EE5valueENS7_24is_valid_target_executorIS11_FvS6_SA_SE_SI_SL_SP_SS_EEENSX_17integral_constantIbLb0EEEEE5valueEvE4typeE, symObjAddr: 0x154C0, symBinAddr: 0x100016290, symSize: 0xA8 }
  - { offset: 0x2BB78, size: 0x8, addend: 0x0, symName: __ZN5boost4asio10io_context19basic_executor_typeINSt3__19allocatorIvEELm4EEC1EOS6_, symObjAddr: 0x15568, symBinAddr: 0x100016338, symSize: 0x34 }
  - { offset: 0x2BBB1, size: 0x8, addend: 0x0, symName: __ZN5boost4asio9execution6detail17any_executor_baseC2INS0_10io_context19basic_executor_typeINSt3__19allocatorIvEELm4EEEEET_NS7_17integral_constantIbLb0EEE, symObjAddr: 0x1559C, symBinAddr: 0x10001636C, symSize: 0x84 }
  - { offset: 0x2BBFF, size: 0x8, addend: 0x0, symName: __ZN5boost4asio10io_context19basic_executor_typeINSt3__19allocatorIvEELm4EEC2EOS6_, symObjAddr: 0x1562C, symBinAddr: 0x1000163FC, symSize: 0x2C }
  - { offset: 0x2BC38, size: 0x8, addend: 0x0, symName: __ZN5boost4asio9execution6detail17any_executor_base14query_blockingINS0_10io_context19basic_executor_typeINSt3__19allocatorIvEELm4EEEEENS2_10blocking_tILi0EEERKT_NS7_17integral_constantIbLb1EEE, symObjAddr: 0x15694, symBinAddr: 0x100016464, symSize: 0x3C }
  - { offset: 0x2BC70, size: 0x8, addend: 0x0, symName: __ZN5boost4asio9execution6detail17any_executor_base16construct_objectINS0_10io_context19basic_executor_typeINSt3__19allocatorIvEELm4EEEEEvRT_NS7_17integral_constantIbLb1EEE, symObjAddr: 0x156D0, symBinAddr: 0x1000164A0, symSize: 0x50 }
  - { offset: 0x2BCB9, size: 0x8, addend: 0x0, symName: __ZN5boost4asio9execution6detail17any_executor_base14target_type_exINS0_10io_context19basic_executor_typeINSt3__19allocatorIvEELm4EEEEERKSt9type_infov, symObjAddr: 0x15720, symBinAddr: 0x1000164F0, symSize: 0xC }
  - { offset: 0x2BCD7, size: 0x8, addend: 0x0, symName: __ZN5boost4asio9execution6detail17any_executor_base8equal_exINS0_10io_context19basic_executor_typeINSt3__19allocatorIvEELm4EEEEEbRKS3_SC_, symObjAddr: 0x1572C, symBinAddr: 0x1000164FC, symSize: 0x60 }
  - { offset: 0x2BD31, size: 0x8, addend: 0x0, symName: __ZN5boost4asio9execution6detail17any_executor_base10execute_exINS0_10io_context19basic_executor_typeINSt3__19allocatorIvEELm4EEEEEvRKS3_ONS0_6detail17executor_functionE, symObjAddr: 0x1578C, symBinAddr: 0x10001655C, symSize: 0x38 }
  - { offset: 0x2BD7C, size: 0x8, addend: 0x0, symName: __ZN5boost4asio9execution6detail17any_executor_base19blocking_execute_exINS0_10io_context19basic_executor_typeINSt3__19allocatorIvEELm4EEEEEvRKS3_NS0_6detail22executor_function_viewE, symObjAddr: 0x157C4, symBinAddr: 0x100016594, symSize: 0x44 }
  - { offset: 0x2BDC7, size: 0x8, addend: 0x0, symName: __ZNK5boost4asio9execution6detail17any_executor_base6targetINS0_10io_context19basic_executor_typeINSt3__19allocatorIvEELm4EEEEEPKT_v, symObjAddr: 0x15808, symBinAddr: 0x1000165D8, symSize: 0x84 }
  - { offset: 0x2BDF6, size: 0x8, addend: 0x0, symName: __ZNK5boost4asio10io_context19basic_executor_typeINSt3__19allocatorIvEELm4EE7executeINS0_6detail17executor_functionEEEvOT_, symObjAddr: 0x158F0, symBinAddr: 0x1000166C0, symSize: 0x1F0 }
  - { offset: 0x2BE77, size: 0x8, addend: 0x0, symName: __ZNK5boost4asio10io_context19basic_executor_typeINSt3__19allocatorIvEELm4EE4bitsEv, symObjAddr: 0x15AE0, symBinAddr: 0x1000168B0, symSize: 0x1C }
  - { offset: 0x2BE9D, size: 0x8, addend: 0x0, symName: __ZNK5boost4asio10io_context19basic_executor_typeINSt3__19allocatorIvEELm4EE7executeIRNS0_6detail22executor_function_viewEEEvOT_, symObjAddr: 0x15AFC, symBinAddr: 0x1000168CC, symSize: 0x19C }
  - { offset: 0x2BF1E, size: 0x8, addend: 0x0, symName: __ZNK19boost_asio_query_fn4implclIRKN5boost4asio10io_context19basic_executor_typeINSt3__19allocatorIvEELm4EEERKNS3_9execution6detail10blocking_tILi0EEEEENS6_9enable_ifIXeqsr11call_traitsIS0_T_FvT0_EEE8overloadLNS_13overload_typeE1EENS_11call_traitsIS0_SJ_SL_vvvvE11result_typeEE4typeEOSJ_OSK_, symObjAddr: 0x15C98, symBinAddr: 0x100016A68, symSize: 0x48 }
  - { offset: 0x2BF72, size: 0x8, addend: 0x0, symName: __ZNK5boost4asio10io_context19basic_executor_typeINSt3__19allocatorIvEELm4EE5queryENS0_9execution6detail10blocking_tILi0EEE, symObjAddr: 0x15CE0, symBinAddr: 0x100016AB0, symSize: 0x64 }
  - { offset: 0x2BFA3, size: 0x8, addend: 0x0, symName: __ZN5boost4asio9execution6detail17any_executor_base14destroy_objectINS0_10io_context19basic_executor_typeINSt3__19allocatorIvEELm4EEEEEvRS3_, symObjAddr: 0x15D5C, symBinAddr: 0x100016B2C, symSize: 0x28 }
  - { offset: 0x2BFD0, size: 0x8, addend: 0x0, symName: __ZN5boost4asio9execution6detail17any_executor_base11copy_objectINS0_10io_context19basic_executor_typeINSt3__19allocatorIvEELm4EEEEEvRS3_RKS3_, symObjAddr: 0x15D84, symBinAddr: 0x100016B54, symSize: 0x4C }
  - { offset: 0x2C00C, size: 0x8, addend: 0x0, symName: __ZN5boost4asio9execution6detail17any_executor_base11move_objectINS0_10io_context19basic_executor_typeINSt3__19allocatorIvEELm4EEEEEvRS3_SB_, symObjAddr: 0x15DD0, symBinAddr: 0x100016BA0, symSize: 0x58 }
  - { offset: 0x2C048, size: 0x8, addend: 0x0, symName: __ZN5boost4asio9execution6detail17any_executor_base13target_objectINS0_10io_context19basic_executor_typeINSt3__19allocatorIvEELm4EEEEEPKvRKS3_, symObjAddr: 0x15E28, symBinAddr: 0x100016BF8, symSize: 0x24 }
  - { offset: 0x2C075, size: 0x8, addend: 0x0, symName: __ZN5boost4asio9execution6detail17any_executor_base6objectINS0_10io_context19basic_executor_typeINSt3__19allocatorIvEELm4EEEEERT_v, symObjAddr: 0x15E4C, symBinAddr: 0x100016C1C, symSize: 0x14 }
  - { offset: 0x2C0A4, size: 0x8, addend: 0x0, symName: __ZNK5boost4asio9execution6detail17any_executor_base6objectINS0_10io_context19basic_executor_typeINSt3__19allocatorIvEELm4EEEEERKT_v, symObjAddr: 0x15E60, symBinAddr: 0x100016C30, symSize: 0x14 }
  - { offset: 0x2C0D3, size: 0x8, addend: 0x0, symName: __ZN5boost4asio10io_context19basic_executor_typeINSt3__19allocatorIvEELm4EEC1ERKS6_, symObjAddr: 0x15E74, symBinAddr: 0x100016C44, symSize: 0x34 }
  - { offset: 0x2C10C, size: 0x8, addend: 0x0, symName: __ZN5boost4asio10io_context19basic_executor_typeINSt3__19allocatorIvEELm4EEC2ERKS6_, symObjAddr: 0x15EA8, symBinAddr: 0x100016C78, symSize: 0x68 }
  - { offset: 0x2C145, size: 0x8, addend: 0x0, symName: __ZN5boost4asio9execution6detail17any_executor_base8query_fnINS0_10io_context19basic_executor_typeINSt3__19allocatorIvEELm4EEENS1_12context_as_tIRNS0_17execution_contextEEEEEvPvPKvSH_, symObjAddr: 0x15F10, symBinAddr: 0x100016CE0, symSize: 0x38 }
  - { offset: 0x2C199, size: 0x8, addend: 0x0, symName: __ZN5boost4asio9execution6detail17any_executor_base10require_fnINS1_12any_executorIJNS1_12context_as_tIRNS0_17execution_contextEEENS2_8blocking7never_tILi0EEENS1_11prefer_onlyINSA_10possibly_tILi0EEEEENSD_INS2_16outstanding_work9tracked_tILi0EEEEENSD_INSH_11untracked_tILi0EEEEENSD_INS2_12relationship6fork_tILi0EEEEENSD_INSO_14continuation_tILi0EEEEEEEENS0_10io_context19basic_executor_typeINSt3__19allocatorIvEELm4EEES9_EET_PKvS14_, symObjAddr: 0x15F48, symBinAddr: 0x100016D18, symSize: 0x3C }
  - { offset: 0x2C1E7, size: 0x8, addend: 0x0, symName: __ZN5boost4asio9execution6detail17any_executor_base9prefer_fnINS1_12any_executorIJNS1_12context_as_tIRNS0_17execution_contextEEENS2_8blocking7never_tILi0EEENS1_11prefer_onlyINSA_10possibly_tILi0EEEEENSD_INS2_16outstanding_work9tracked_tILi0EEEEENSD_INSH_11untracked_tILi0EEEEENSD_INS2_12relationship6fork_tILi0EEEEENSD_INSO_14continuation_tILi0EEEEEEEENS0_10io_context19basic_executor_typeINSt3__19allocatorIvEELm4EEES9_EET_PKvS14_, symObjAddr: 0x15F84, symBinAddr: 0x100016D54, symSize: 0x3C }
  - { offset: 0x2C235, size: 0x8, addend: 0x0, symName: __ZN5boost4asio9execution6detail17any_executor_base8query_fnINS0_10io_context19basic_executor_typeINSt3__19allocatorIvEELm4EEENS2_8blocking7never_tILi0EEEEEvPvPKvSG_, symObjAddr: 0x15FC0, symBinAddr: 0x100016D90, symSize: 0x38 }
  - { offset: 0x2C289, size: 0x8, addend: 0x0, symName: __ZN5boost4asio9execution6detail17any_executor_base10require_fnINS1_12any_executorIJNS1_12context_as_tIRNS0_17execution_contextEEENS2_8blocking7never_tILi0EEENS1_11prefer_onlyINSA_10possibly_tILi0EEEEENSD_INS2_16outstanding_work9tracked_tILi0EEEEENSD_INSH_11untracked_tILi0EEEEENSD_INS2_12relationship6fork_tILi0EEEEENSD_INSO_14continuation_tILi0EEEEEEEENS0_10io_context19basic_executor_typeINSt3__19allocatorIvEELm4EEESC_EET_PKvS14_, symObjAddr: 0x15FF8, symBinAddr: 0x100016DC8, symSize: 0x38 }
  - { offset: 0x2C2D7, size: 0x8, addend: 0x0, symName: __ZN5boost4asio9execution6detail17any_executor_base9prefer_fnINS1_12any_executorIJNS1_12context_as_tIRNS0_17execution_contextEEENS2_8blocking7never_tILi0EEENS1_11prefer_onlyINSA_10possibly_tILi0EEEEENSD_INS2_16outstanding_work9tracked_tILi0EEEEENSD_INSH_11untracked_tILi0EEEEENSD_INS2_12relationship6fork_tILi0EEEEENSD_INSO_14continuation_tILi0EEEEEEEENS0_10io_context19basic_executor_typeINSt3__19allocatorIvEELm4EEESC_EET_PKvS14_, symObjAddr: 0x16030, symBinAddr: 0x100016E00, symSize: 0x38 }
  - { offset: 0x2C325, size: 0x8, addend: 0x0, symName: __ZN5boost4asio9execution6detail17any_executor_base8query_fnINS0_10io_context19basic_executor_typeINSt3__19allocatorIvEELm4EEENS1_11prefer_onlyINS2_8blocking10possibly_tILi0EEEEEEEvPvPKvSI_, symObjAddr: 0x16068, symBinAddr: 0x100016E38, symSize: 0x38 }
  - { offset: 0x2C379, size: 0x8, addend: 0x0, symName: __ZN5boost4asio9execution6detail17any_executor_base10require_fnINS1_12any_executorIJNS1_12context_as_tIRNS0_17execution_contextEEENS2_8blocking7never_tILi0EEENS1_11prefer_onlyINSA_10possibly_tILi0EEEEENSD_INS2_16outstanding_work9tracked_tILi0EEEEENSD_INSH_11untracked_tILi0EEEEENSD_INS2_12relationship6fork_tILi0EEEEENSD_INSO_14continuation_tILi0EEEEEEEENS0_10io_context19basic_executor_typeINSt3__19allocatorIvEELm4EEESG_EET_PKvS14_, symObjAddr: 0x160A0, symBinAddr: 0x100016E70, symSize: 0x3C }
  - { offset: 0x2C3C7, size: 0x8, addend: 0x0, symName: __ZN5boost4asio9execution6detail17any_executor_base9prefer_fnINS1_12any_executorIJNS1_12context_as_tIRNS0_17execution_contextEEENS2_8blocking7never_tILi0EEENS1_11prefer_onlyINSA_10possibly_tILi0EEEEENSD_INS2_16outstanding_work9tracked_tILi0EEEEENSD_INSH_11untracked_tILi0EEEEENSD_INS2_12relationship6fork_tILi0EEEEENSD_INSO_14continuation_tILi0EEEEEEEENS0_10io_context19basic_executor_typeINSt3__19allocatorIvEELm4EEESG_EET_PKvS14_, symObjAddr: 0x160DC, symBinAddr: 0x100016EAC, symSize: 0x38 }
  - { offset: 0x2C415, size: 0x8, addend: 0x0, symName: __ZN5boost4asio9execution6detail17any_executor_base8query_fnINS0_10io_context19basic_executor_typeINSt3__19allocatorIvEELm4EEENS1_11prefer_onlyINS2_16outstanding_work9tracked_tILi0EEEEEEEvPvPKvSI_, symObjAddr: 0x16114, symBinAddr: 0x100016EE4, symSize: 0x38 }
  - { offset: 0x2C469, size: 0x8, addend: 0x0, symName: __ZN5boost4asio9execution6detail17any_executor_base10require_fnINS1_12any_executorIJNS1_12context_as_tIRNS0_17execution_contextEEENS2_8blocking7never_tILi0EEENS1_11prefer_onlyINSA_10possibly_tILi0EEEEENSD_INS2_16outstanding_work9tracked_tILi0EEEEENSD_INSH_11untracked_tILi0EEEEENSD_INS2_12relationship6fork_tILi0EEEEENSD_INSO_14continuation_tILi0EEEEEEEENS0_10io_context19basic_executor_typeINSt3__19allocatorIvEELm4EEESK_EET_PKvS14_, symObjAddr: 0x1614C, symBinAddr: 0x100016F1C, symSize: 0x3C }
  - { offset: 0x2C4B7, size: 0x8, addend: 0x0, symName: __ZN5boost4asio9execution6detail17any_executor_base9prefer_fnINS1_12any_executorIJNS1_12context_as_tIRNS0_17execution_contextEEENS2_8blocking7never_tILi0EEENS1_11prefer_onlyINSA_10possibly_tILi0EEEEENSD_INS2_16outstanding_work9tracked_tILi0EEEEENSD_INSH_11untracked_tILi0EEEEENSD_INS2_12relationship6fork_tILi0EEEEENSD_INSO_14continuation_tILi0EEEEEEEENS0_10io_context19basic_executor_typeINSt3__19allocatorIvEELm4EEESK_EET_PKvS14_, symObjAddr: 0x16188, symBinAddr: 0x100016F58, symSize: 0x38 }
  - { offset: 0x2C505, size: 0x8, addend: 0x0, symName: __ZN5boost4asio9execution6detail17any_executor_base8query_fnINS0_10io_context19basic_executor_typeINSt3__19allocatorIvEELm4EEENS1_11prefer_onlyINS2_16outstanding_work11untracked_tILi0EEEEEEEvPvPKvSI_, symObjAddr: 0x161C0, symBinAddr: 0x100016F90, symSize: 0x38 }
  - { offset: 0x2C559, size: 0x8, addend: 0x0, symName: __ZN5boost4asio9execution6detail17any_executor_base10require_fnINS1_12any_executorIJNS1_12context_as_tIRNS0_17execution_contextEEENS2_8blocking7never_tILi0EEENS1_11prefer_onlyINSA_10possibly_tILi0EEEEENSD_INS2_16outstanding_work9tracked_tILi0EEEEENSD_INSH_11untracked_tILi0EEEEENSD_INS2_12relationship6fork_tILi0EEEEENSD_INSO_14continuation_tILi0EEEEEEEENS0_10io_context19basic_executor_typeINSt3__19allocatorIvEELm4EEESN_EET_PKvS14_, symObjAddr: 0x161F8, symBinAddr: 0x100016FC8, symSize: 0x3C }
  - { offset: 0x2C5A7, size: 0x8, addend: 0x0, symName: __ZN5boost4asio9execution6detail17any_executor_base9prefer_fnINS1_12any_executorIJNS1_12context_as_tIRNS0_17execution_contextEEENS2_8blocking7never_tILi0EEENS1_11prefer_onlyINSA_10possibly_tILi0EEEEENSD_INS2_16outstanding_work9tracked_tILi0EEEEENSD_INSH_11untracked_tILi0EEEEENSD_INS2_12relationship6fork_tILi0EEEEENSD_INSO_14continuation_tILi0EEEEEEEENS0_10io_context19basic_executor_typeINSt3__19allocatorIvEELm4EEESN_EET_PKvS14_, symObjAddr: 0x16234, symBinAddr: 0x100017004, symSize: 0x38 }
  - { offset: 0x2C5F5, size: 0x8, addend: 0x0, symName: __ZN5boost4asio9execution6detail17any_executor_base8query_fnINS0_10io_context19basic_executor_typeINSt3__19allocatorIvEELm4EEENS1_11prefer_onlyINS2_12relationship6fork_tILi0EEEEEEEvPvPKvSI_, symObjAddr: 0x1626C, symBinAddr: 0x10001703C, symSize: 0x38 }
  - { offset: 0x2C649, size: 0x8, addend: 0x0, symName: __ZN5boost4asio9execution6detail17any_executor_base10require_fnINS1_12any_executorIJNS1_12context_as_tIRNS0_17execution_contextEEENS2_8blocking7never_tILi0EEENS1_11prefer_onlyINSA_10possibly_tILi0EEEEENSD_INS2_16outstanding_work9tracked_tILi0EEEEENSD_INSH_11untracked_tILi0EEEEENSD_INS2_12relationship6fork_tILi0EEEEENSD_INSO_14continuation_tILi0EEEEEEEENS0_10io_context19basic_executor_typeINSt3__19allocatorIvEELm4EEESR_EET_PKvS14_, symObjAddr: 0x162A4, symBinAddr: 0x100017074, symSize: 0x3C }
  - { offset: 0x2C697, size: 0x8, addend: 0x0, symName: __ZN5boost4asio9execution6detail17any_executor_base9prefer_fnINS1_12any_executorIJNS1_12context_as_tIRNS0_17execution_contextEEENS2_8blocking7never_tILi0EEENS1_11prefer_onlyINSA_10possibly_tILi0EEEEENSD_INS2_16outstanding_work9tracked_tILi0EEEEENSD_INSH_11untracked_tILi0EEEEENSD_INS2_12relationship6fork_tILi0EEEEENSD_INSO_14continuation_tILi0EEEEEEEENS0_10io_context19basic_executor_typeINSt3__19allocatorIvEELm4EEESR_EET_PKvS14_, symObjAddr: 0x162E0, symBinAddr: 0x1000170B0, symSize: 0x38 }
  - { offset: 0x2C6E5, size: 0x8, addend: 0x0, symName: __ZN5boost4asio9execution6detail17any_executor_base8query_fnINS0_10io_context19basic_executor_typeINSt3__19allocatorIvEELm4EEENS1_11prefer_onlyINS2_12relationship14continuation_tILi0EEEEEEEvPvPKvSI_, symObjAddr: 0x16318, symBinAddr: 0x1000170E8, symSize: 0x38 }
  - { offset: 0x2C739, size: 0x8, addend: 0x0, symName: __ZN5boost4asio9execution6detail17any_executor_base10require_fnINS1_12any_executorIJNS1_12context_as_tIRNS0_17execution_contextEEENS2_8blocking7never_tILi0EEENS1_11prefer_onlyINSA_10possibly_tILi0EEEEENSD_INS2_16outstanding_work9tracked_tILi0EEEEENSD_INSH_11untracked_tILi0EEEEENSD_INS2_12relationship6fork_tILi0EEEEENSD_INSO_14continuation_tILi0EEEEEEEENS0_10io_context19basic_executor_typeINSt3__19allocatorIvEELm4EEESU_EET_PKvS14_, symObjAddr: 0x16350, symBinAddr: 0x100017120, symSize: 0x3C }
  - { offset: 0x2C787, size: 0x8, addend: 0x0, symName: __ZN5boost4asio9execution6detail17any_executor_base9prefer_fnINS1_12any_executorIJNS1_12context_as_tIRNS0_17execution_contextEEENS2_8blocking7never_tILi0EEENS1_11prefer_onlyINSA_10possibly_tILi0EEEEENSD_INS2_16outstanding_work9tracked_tILi0EEEEENSD_INSH_11untracked_tILi0EEEEENSD_INS2_12relationship6fork_tILi0EEEEENSD_INSO_14continuation_tILi0EEEEEEEENS0_10io_context19basic_executor_typeINSt3__19allocatorIvEELm4EEESU_EET_PKvS14_, symObjAddr: 0x1638C, symBinAddr: 0x10001715C, symSize: 0x38 }
  - { offset: 0x2C7D5, size: 0x8, addend: 0x0, symName: __ZN5boost4asio9execution6detail17any_executor_base13query_fn_implINS0_10io_context19basic_executor_typeINSt3__19allocatorIvEELm4EEENS1_12context_as_tIRNS0_17execution_contextEEEEEvPvPKvSH_PNS7_9enable_ifIXntsr7is_sameIT_vEE5valueEvE4typeE, symObjAddr: 0x163C4, symBinAddr: 0x100017194, symSize: 0x3C }
  - { offset: 0x2C83A, size: 0x8, addend: 0x0, symName: __ZN5boost4asio9execution6detail17any_executor_base17query_fn_non_voidINS0_10io_context19basic_executor_typeINSt3__19allocatorIvEELm4EEENS1_12context_as_tIRNS0_17execution_contextEEEEEvPvPKvSH_PNS7_9enable_ifIXaaaasr5boost4asio9can_queryIRKT_RKT0_EE5valuentsr7is_sameINSM_29polymorphic_query_result_typeEvEE5valuesr12is_referenceISP_EE5valueEvE4typeE, symObjAddr: 0x16400, symBinAddr: 0x1000171D0, symSize: 0x44 }
  - { offset: 0x2C899, size: 0x8, addend: 0x0, symName: __ZNK19boost_asio_query_fn4implclIRKN5boost4asio10io_context19basic_executor_typeINSt3__19allocatorIvEELm4EEERKNS3_9execution12context_as_tIRNS3_17execution_contextEEEEENS6_9enable_ifIXeqsr11call_traitsIS0_T_FvT0_EEE8overloadLNS_13overload_typeE2EENS_11call_traitsIS0_SK_SM_vvvvE11result_typeEE4typeEOSK_OSL_, symObjAddr: 0x16444, symBinAddr: 0x100017214, symSize: 0x38 }
  - { offset: 0x2C8ED, size: 0x8, addend: 0x0, symName: __ZNK19boost_asio_query_fn4implclIRKN5boost4asio10io_context19basic_executor_typeINSt3__19allocatorIvEELm4EEERKNS3_9execution6detail9context_tILi0EEEEENS6_9enable_ifIXeqsr11call_traitsIS0_T_FvT0_EEE8overloadLNS_13overload_typeE1EENS_11call_traitsIS0_SJ_SL_vvvvE11result_typeEE4typeEOSJ_OSK_, symObjAddr: 0x164BC, symBinAddr: 0x10001728C, symSize: 0x2C }
  - { offset: 0x2C941, size: 0x8, addend: 0x0, symName: __ZNK5boost4asio10io_context19basic_executor_typeINSt3__19allocatorIvEELm4EE5queryENS0_9execution6detail9context_tILi0EEE, symObjAddr: 0x164E8, symBinAddr: 0x1000172B8, symSize: 0x24 }
  - { offset: 0x2C972, size: 0x8, addend: 0x0, symName: __ZN5boost4asio9execution6detail17any_executor_base15require_fn_implINS1_12any_executorIJNS1_12context_as_tIRNS0_17execution_contextEEENS2_8blocking7never_tILi0EEENS1_11prefer_onlyINSA_10possibly_tILi0EEEEENSD_INS2_16outstanding_work9tracked_tILi0EEEEENSD_INSH_11untracked_tILi0EEEEENSD_INS2_12relationship6fork_tILi0EEEEENSD_INSO_14continuation_tILi0EEEEEEEENS0_10io_context19basic_executor_typeINSt3__19allocatorIvEELm4EEES9_EET_PKvS14_z, symObjAddr: 0x1650C, symBinAddr: 0x1000172DC, symSize: 0x38 }
  - { offset: 0x2C9B9, size: 0x8, addend: 0x0, symName: __ZN5boost4asio9execution6detail17any_executor_base14prefer_fn_implINS1_12any_executorIJNS1_12context_as_tIRNS0_17execution_contextEEENS2_8blocking7never_tILi0EEENS1_11prefer_onlyINSA_10possibly_tILi0EEEEENSD_INS2_16outstanding_work9tracked_tILi0EEEEENSD_INSH_11untracked_tILi0EEEEENSD_INS2_12relationship6fork_tILi0EEEEENSD_INSO_14continuation_tILi0EEEEEEEENS0_10io_context19basic_executor_typeINSt3__19allocatorIvEELm4EEES9_EET_PKvS14_z, symObjAddr: 0x16544, symBinAddr: 0x100017314, symSize: 0x38 }
  - { offset: 0x2CA00, size: 0x8, addend: 0x0, symName: __ZN5boost4asio9execution6detail17any_executor_base13query_fn_implINS0_10io_context19basic_executor_typeINSt3__19allocatorIvEELm4EEENS2_8blocking7never_tILi0EEEEEvPvPKvSG_PNS7_9enable_ifIXntsr7is_sameIT_vEE5valueEvE4typeE, symObjAddr: 0x1657C, symBinAddr: 0x10001734C, symSize: 0x3C }
  - { offset: 0x2CA65, size: 0x8, addend: 0x0, symName: __ZN5boost4asio9execution6detail17any_executor_base17query_fn_non_voidINS0_10io_context19basic_executor_typeINSt3__19allocatorIvEELm4EEENS2_8blocking7never_tILi0EEEEEvPvPKvSG_PNS7_9enable_ifIXaaaaaasr5boost4asio9can_queryIRKT_RKT0_EE5valuentsr7is_sameINSL_29polymorphic_query_result_typeEvEE5valuentsr12is_referenceISO_EE5valuentsr9is_scalarISO_EE5valueEvE4typeE, symObjAddr: 0x165B8, symBinAddr: 0x100017388, symSize: 0x88 }
  - { offset: 0x2CAC4, size: 0x8, addend: 0x0, symName: __ZNK19boost_asio_query_fn4implclIRKN5boost4asio10io_context19basic_executor_typeINSt3__19allocatorIvEELm4EEERKNS3_9execution6detail8blocking7never_tILi0EEEEENS6_9enable_ifIXeqsr11call_traitsIS0_T_FvT0_EEE8overloadLNS_13overload_typeE1EENS_11call_traitsIS0_SK_SM_vvvvE11result_typeEE4typeEOSK_OSL_, symObjAddr: 0x16640, symBinAddr: 0x100017410, symSize: 0x4C }
  - { offset: 0x2CB1E, size: 0x8, addend: 0x0, symName: __ZN5boost4asio9execution6detail17any_executor_base15require_fn_implINS1_12any_executorIJNS1_12context_as_tIRNS0_17execution_contextEEENS2_8blocking7never_tILi0EEENS1_11prefer_onlyINSA_10possibly_tILi0EEEEENSD_INS2_16outstanding_work9tracked_tILi0EEEEENSD_INSH_11untracked_tILi0EEEEENSD_INS2_12relationship6fork_tILi0EEEEENSD_INSO_14continuation_tILi0EEEEEEEENS0_10io_context19basic_executor_typeINSt3__19allocatorIvEELm4EEESC_EET_PKvS14_PNSY_9enable_ifIXaantsr7is_sameIT0_vEE5valuesrT1_13is_requirableEvE4typeE, symObjAddr: 0x1668C, symBinAddr: 0x10001745C, symSize: 0x84 }
  - { offset: 0x2CB77, size: 0x8, addend: 0x0, symName: __ZNK21boost_asio_require_fn4implclIRKN5boost4asio10io_context19basic_executor_typeINSt3__19allocatorIvEELm4EEERKNS3_9execution6detail8blocking7never_tILi0EEEEENS6_9enable_ifIXeqsr11call_traitsIS0_T_FvT0_EEE8overloadLNS_13overload_typeE1EENS_11call_traitsIS0_SK_SM_vvvvvE11result_typeEE4typeEOSK_OSL_, symObjAddr: 0x16710, symBinAddr: 0x1000174E0, symSize: 0x34 }
  - { offset: 0x2CBCD, size: 0x8, addend: 0x0, symName: __ZNK5boost4asio10io_context19basic_executor_typeINSt3__19allocatorIvEELm4EE7requireENS0_9execution6detail8blocking7never_tILi0EEE, symObjAddr: 0x16744, symBinAddr: 0x100017514, symSize: 0x58 }
  - { offset: 0x2CC04, size: 0x8, addend: 0x0, symName: __ZN5boost4asio9execution6detail17any_executor_base14prefer_fn_implINS1_12any_executorIJNS1_12context_as_tIRNS0_17execution_contextEEENS2_8blocking7never_tILi0EEENS1_11prefer_onlyINSA_10possibly_tILi0EEEEENSD_INS2_16outstanding_work9tracked_tILi0EEEEENSD_INSH_11untracked_tILi0EEEEENSD_INS2_12relationship6fork_tILi0EEEEENSD_INSO_14continuation_tILi0EEEEEEEENS0_10io_context19basic_executor_typeINSt3__19allocatorIvEELm4EEESC_EET_PKvS14_PNSY_9enable_ifIXaantsr7is_sameIT0_vEE5valuesrT1_13is_preferableEvE4typeE, symObjAddr: 0x1679C, symBinAddr: 0x10001756C, symSize: 0x84 }
  - { offset: 0x2CC5D, size: 0x8, addend: 0x0, symName: __ZNK20boost_asio_prefer_fn4implclIRKN5boost4asio10io_context19basic_executor_typeINSt3__19allocatorIvEELm4EEERKNS3_9execution6detail8blocking7never_tILi0EEEEENS6_9enable_ifIXeqsr11call_traitsIS0_T_FvT0_EEE8overloadLNS_13overload_typeE1EENS_11call_traitsIS0_SK_SM_vvvvvvvE11result_typeEE4typeEOSK_OSL_, symObjAddr: 0x16820, symBinAddr: 0x1000175F0, symSize: 0x34 }
  - { offset: 0x2CCB3, size: 0x8, addend: 0x0, symName: __ZN5boost4asio9execution6detail17any_executor_base13query_fn_implINS0_10io_context19basic_executor_typeINSt3__19allocatorIvEELm4EEENS1_11prefer_onlyINS2_8blocking10possibly_tILi0EEEEEEEvPvPKvSI_PNS7_9enable_ifIXntsr7is_sameIT_vEE5valueEvE4typeE, symObjAddr: 0x16854, symBinAddr: 0x100017624, symSize: 0x3C }
  - { offset: 0x2CD18, size: 0x8, addend: 0x0, symName: __ZN5boost4asio9execution6detail17any_executor_base17query_fn_non_voidINS0_10io_context19basic_executor_typeINSt3__19allocatorIvEELm4EEENS1_11prefer_onlyINS2_8blocking10possibly_tILi0EEEEEEEvPvPKvSI_PNS7_9enable_ifIXaaaaaasr5boost4asio9can_queryIRKT_RKT0_EE5valuentsr7is_sameINSN_29polymorphic_query_result_typeEvEE5valuentsr12is_referenceISQ_EE5valuentsr9is_scalarISQ_EE5valueEvE4typeE, symObjAddr: 0x16890, symBinAddr: 0x100017660, symSize: 0x88 }
  - { offset: 0x2CD77, size: 0x8, addend: 0x0, symName: __ZNK19boost_asio_query_fn4implclIRKN5boost4asio10io_context19basic_executor_typeINSt3__19allocatorIvEELm4EEERKNS3_9execution11prefer_onlyINSC_6detail8blocking10possibly_tILi0EEEEEEENS6_9enable_ifIXeqsr11call_traitsIS0_T_FvT0_EEE8overloadLNS_13overload_typeE2EENS_11call_traitsIS0_SM_SO_vvvvE11result_typeEE4typeEOSM_OSN_, symObjAddr: 0x16918, symBinAddr: 0x1000176E8, symSize: 0x40 }
  - { offset: 0x2CDCB, size: 0x8, addend: 0x0, symName: __ZNK19boost_asio_query_fn4implclIRKN5boost4asio10io_context19basic_executor_typeINSt3__19allocatorIvEELm4EEERKNS3_9execution6detail8blocking10possibly_tILi0EEEEENS6_9enable_ifIXeqsr11call_traitsIS0_T_FvT0_EEE8overloadLNS_13overload_typeE1EENS_11call_traitsIS0_SK_SM_vvvvE11result_typeEE4typeEOSK_OSL_, symObjAddr: 0x1699C, symBinAddr: 0x10001776C, symSize: 0x4C }
  - { offset: 0x2CE1F, size: 0x8, addend: 0x0, symName: __ZN5boost4asio9execution6detail17any_executor_base15require_fn_implINS1_12any_executorIJNS1_12context_as_tIRNS0_17execution_contextEEENS2_8blocking7never_tILi0EEENS1_11prefer_onlyINSA_10possibly_tILi0EEEEENSD_INS2_16outstanding_work9tracked_tILi0EEEEENSD_INSH_11untracked_tILi0EEEEENSD_INS2_12relationship6fork_tILi0EEEEENSD_INSO_14continuation_tILi0EEEEEEEENS0_10io_context19basic_executor_typeINSt3__19allocatorIvEELm4EEESG_EET_PKvS14_z, symObjAddr: 0x169E8, symBinAddr: 0x1000177B8, symSize: 0x38 }
  - { offset: 0x2CE6C, size: 0x8, addend: 0x0, symName: __ZN5boost4asio9execution6detail17any_executor_base14prefer_fn_implINS1_12any_executorIJNS1_12context_as_tIRNS0_17execution_contextEEENS2_8blocking7never_tILi0EEENS1_11prefer_onlyINSA_10possibly_tILi0EEEEENSD_INS2_16outstanding_work9tracked_tILi0EEEEENSD_INSH_11untracked_tILi0EEEEENSD_INS2_12relationship6fork_tILi0EEEEENSD_INSO_14continuation_tILi0EEEEEEEENS0_10io_context19basic_executor_typeINSt3__19allocatorIvEELm4EEESG_EET_PKvS14_PNSY_9enable_ifIXaantsr7is_sameIT0_vEE5valuesrT1_13is_preferableEvE4typeE, symObjAddr: 0x16A20, symBinAddr: 0x1000177F0, symSize: 0x84 }
  - { offset: 0x2CEC5, size: 0x8, addend: 0x0, symName: __ZNK20boost_asio_prefer_fn4implclIRKN5boost4asio10io_context19basic_executor_typeINSt3__19allocatorIvEELm4EEERKNS3_9execution11prefer_onlyINSC_6detail8blocking10possibly_tILi0EEEEEEENS6_9enable_ifIXeqsr11call_traitsIS0_T_FvT0_EEE8overloadLNS_13overload_typeE4EENS_11call_traitsIS0_SM_SO_vvvvvvvE11result_typeEE4typeEOSM_OSN_, symObjAddr: 0x16AA4, symBinAddr: 0x100017874, symSize: 0x40 }
  - { offset: 0x2CF1B, size: 0x8, addend: 0x0, symName: __ZNK20boost_asio_prefer_fn4implclIRKN5boost4asio10io_context19basic_executor_typeINSt3__19allocatorIvEELm4EEERKNS3_9execution6detail8blocking10possibly_tILi0EEEEENS6_9enable_ifIXeqsr11call_traitsIS0_T_FvT0_EEE8overloadLNS_13overload_typeE1EENS_11call_traitsIS0_SK_SM_vvvvvvvE11result_typeEE4typeEOSK_OSL_, symObjAddr: 0x16B28, symBinAddr: 0x1000178F8, symSize: 0x34 }
  - { offset: 0x2CF71, size: 0x8, addend: 0x0, symName: __ZNK5boost4asio10io_context19basic_executor_typeINSt3__19allocatorIvEELm4EE7requireENS0_9execution6detail8blocking10possibly_tILi0EEE, symObjAddr: 0x16B5C, symBinAddr: 0x10001792C, symSize: 0x58 }
  - { offset: 0x2CFA2, size: 0x8, addend: 0x0, symName: __ZN5boost4asio9execution6detail17any_executor_base13query_fn_implINS0_10io_context19basic_executor_typeINSt3__19allocatorIvEELm4EEENS1_11prefer_onlyINS2_16outstanding_work9tracked_tILi0EEEEEEEvPvPKvSI_PNS7_9enable_ifIXntsr7is_sameIT_vEE5valueEvE4typeE, symObjAddr: 0x16BB4, symBinAddr: 0x100017984, symSize: 0x3C }
  - { offset: 0x2D007, size: 0x8, addend: 0x0, symName: __ZN5boost4asio9execution6detail17any_executor_base17query_fn_non_voidINS0_10io_context19basic_executor_typeINSt3__19allocatorIvEELm4EEENS1_11prefer_onlyINS2_16outstanding_work9tracked_tILi0EEEEEEEvPvPKvSI_PNS7_9enable_ifIXaaaaaasr5boost4asio9can_queryIRKT_RKT0_EE5valuentsr7is_sameINSN_29polymorphic_query_result_typeEvEE5valuentsr12is_referenceISQ_EE5valuentsr9is_scalarISQ_EE5valueEvE4typeE, symObjAddr: 0x16BF0, symBinAddr: 0x1000179C0, symSize: 0x5C }
  - { offset: 0x2D066, size: 0x8, addend: 0x0, symName: __ZNK19boost_asio_query_fn4implclIRKN5boost4asio10io_context19basic_executor_typeINSt3__19allocatorIvEELm4EEERKNS3_9execution11prefer_onlyINSC_6detail16outstanding_work9tracked_tILi0EEEEEEENS6_9enable_ifIXeqsr11call_traitsIS0_T_FvT0_EEE8overloadLNS_13overload_typeE0EENS_11call_traitsIS0_SM_SO_vvvvE11result_typeEE4typeEOSM_OSN_, symObjAddr: 0x16C4C, symBinAddr: 0x100017A1C, symSize: 0x30 }
  - { offset: 0x2D0B2, size: 0x8, addend: 0x0, symName: __ZN5boost4asio6detail18static_query_traitINS0_10io_context19basic_executor_typeINSt3__19allocatorIvEELm4EEENS0_9execution11prefer_onlyINS9_6detail16outstanding_work9tracked_tILi0EEEEEvE5valueEv, symObjAddr: 0x16C7C, symBinAddr: 0x100017A4C, symSize: 0x20 }
  - { offset: 0x2D0C6, size: 0x8, addend: 0x0, symName: __ZN5boost4asio9execution6detail17any_executor_base15require_fn_implINS1_12any_executorIJNS1_12context_as_tIRNS0_17execution_contextEEENS2_8blocking7never_tILi0EEENS1_11prefer_onlyINSA_10possibly_tILi0EEEEENSD_INS2_16outstanding_work9tracked_tILi0EEEEENSD_INSH_11untracked_tILi0EEEEENSD_INS2_12relationship6fork_tILi0EEEEENSD_INSO_14continuation_tILi0EEEEEEEENS0_10io_context19basic_executor_typeINSt3__19allocatorIvEELm4EEESK_EET_PKvS14_z, symObjAddr: 0x16C9C, symBinAddr: 0x100017A6C, symSize: 0x38 }
  - { offset: 0x2D113, size: 0x8, addend: 0x0, symName: __ZN5boost4asio9execution6detail17any_executor_base14prefer_fn_implINS1_12any_executorIJNS1_12context_as_tIRNS0_17execution_contextEEENS2_8blocking7never_tILi0EEENS1_11prefer_onlyINSA_10possibly_tILi0EEEEENSD_INS2_16outstanding_work9tracked_tILi0EEEEENSD_INSH_11untracked_tILi0EEEEENSD_INS2_12relationship6fork_tILi0EEEEENSD_INSO_14continuation_tILi0EEEEEEEENS0_10io_context19basic_executor_typeINSt3__19allocatorIvEELm4EEESK_EET_PKvS14_PNSY_9enable_ifIXaantsr7is_sameIT0_vEE5valuesrT1_13is_preferableEvE4typeE, symObjAddr: 0x16CD4, symBinAddr: 0x100017AA4, symSize: 0x8C }
  - { offset: 0x2D16C, size: 0x8, addend: 0x0, symName: __ZNK20boost_asio_prefer_fn4implclIRKN5boost4asio10io_context19basic_executor_typeINSt3__19allocatorIvEELm4EEERKNS3_9execution11prefer_onlyINSC_6detail16outstanding_work9tracked_tILi0EEEEEEENS6_9enable_ifIXeqsr11call_traitsIS0_T_FvT0_EEE8overloadLNS_13overload_typeE4EENS_11call_traitsIS0_SM_SO_vvvvvvvE11result_typeEE4typeEOSM_OSN_, symObjAddr: 0x16D60, symBinAddr: 0x100017B30, symSize: 0x38 }
  - { offset: 0x2D1C2, size: 0x8, addend: 0x0, symName: __ZNK20boost_asio_prefer_fn4implclIRKN5boost4asio10io_context19basic_executor_typeINSt3__19allocatorIvEELm4EEERKNS3_9execution6detail16outstanding_work9tracked_tILi0EEEEENS6_9enable_ifIXeqsr11call_traitsIS0_T_FvT0_EEE8overloadLNS_13overload_typeE0EENS_11call_traitsIS0_SK_SM_vvvvvvvE11result_typeEE4typeEOSK_OSL_, symObjAddr: 0x16DD4, symBinAddr: 0x100017BA4, symSize: 0x1C }
  - { offset: 0x2D214, size: 0x8, addend: 0x0, symName: __ZN5boost4asio9execution6detail17any_executor_base13query_fn_implINS0_10io_context19basic_executor_typeINSt3__19allocatorIvEELm4EEENS1_11prefer_onlyINS2_16outstanding_work11untracked_tILi0EEEEEEEvPvPKvSI_PNS7_9enable_ifIXntsr7is_sameIT_vEE5valueEvE4typeE, symObjAddr: 0x16DF0, symBinAddr: 0x100017BC0, symSize: 0x3C }
  - { offset: 0x2D279, size: 0x8, addend: 0x0, symName: __ZN5boost4asio9execution6detail17any_executor_base17query_fn_non_voidINS0_10io_context19basic_executor_typeINSt3__19allocatorIvEELm4EEENS1_11prefer_onlyINS2_16outstanding_work11untracked_tILi0EEEEEEEvPvPKvSI_PNS7_9enable_ifIXaaaaaasr5boost4asio9can_queryIRKT_RKT0_EE5valuentsr7is_sameINSN_29polymorphic_query_result_typeEvEE5valuentsr12is_referenceISQ_EE5valuentsr9is_scalarISQ_EE5valueEvE4typeE, symObjAddr: 0x16E2C, symBinAddr: 0x100017BFC, symSize: 0x5C }
  - { offset: 0x2D2DE, size: 0x8, addend: 0x0, symName: __ZNK19boost_asio_query_fn4implclIRKN5boost4asio10io_context19basic_executor_typeINSt3__19allocatorIvEELm4EEERKNS3_9execution11prefer_onlyINSC_6detail16outstanding_work11untracked_tILi0EEEEEEENS6_9enable_ifIXeqsr11call_traitsIS0_T_FvT0_EEE8overloadLNS_13overload_typeE0EENS_11call_traitsIS0_SM_SO_vvvvE11result_typeEE4typeEOSM_OSN_, symObjAddr: 0x16E88, symBinAddr: 0x100017C58, symSize: 0x30 }
  - { offset: 0x2D32A, size: 0x8, addend: 0x0, symName: __ZN5boost4asio6detail18static_query_traitINS0_10io_context19basic_executor_typeINSt3__19allocatorIvEELm4EEENS0_9execution11prefer_onlyINS9_6detail16outstanding_work11untracked_tILi0EEEEEvE5valueEv, symObjAddr: 0x16EB8, symBinAddr: 0x100017C88, symSize: 0x20 }
  - { offset: 0x2D33E, size: 0x8, addend: 0x0, symName: __ZN5boost4asio9execution6detail17any_executor_base15require_fn_implINS1_12any_executorIJNS1_12context_as_tIRNS0_17execution_contextEEENS2_8blocking7never_tILi0EEENS1_11prefer_onlyINSA_10possibly_tILi0EEEEENSD_INS2_16outstanding_work9tracked_tILi0EEEEENSD_INSH_11untracked_tILi0EEEEENSD_INS2_12relationship6fork_tILi0EEEEENSD_INSO_14continuation_tILi0EEEEEEEENS0_10io_context19basic_executor_typeINSt3__19allocatorIvEELm4EEESN_EET_PKvS14_z, symObjAddr: 0x16ED8, symBinAddr: 0x100017CA8, symSize: 0x38 }
  - { offset: 0x2D38B, size: 0x8, addend: 0x0, symName: __ZN5boost4asio9execution6detail17any_executor_base14prefer_fn_implINS1_12any_executorIJNS1_12context_as_tIRNS0_17execution_contextEEENS2_8blocking7never_tILi0EEENS1_11prefer_onlyINSA_10possibly_tILi0EEEEENSD_INS2_16outstanding_work9tracked_tILi0EEEEENSD_INSH_11untracked_tILi0EEEEENSD_INS2_12relationship6fork_tILi0EEEEENSD_INSO_14continuation_tILi0EEEEEEEENS0_10io_context19basic_executor_typeINSt3__19allocatorIvEELm4EEESN_EET_PKvS14_PNSY_9enable_ifIXaantsr7is_sameIT0_vEE5valuesrT1_13is_preferableEvE4typeE, symObjAddr: 0x16F10, symBinAddr: 0x100017CE0, symSize: 0x84 }
  - { offset: 0x2D3E4, size: 0x8, addend: 0x0, symName: __ZNK20boost_asio_prefer_fn4implclIRKN5boost4asio10io_context19basic_executor_typeINSt3__19allocatorIvEELm4EEERKNS3_9execution11prefer_onlyINSC_6detail16outstanding_work11untracked_tILi0EEEEEEENS6_9enable_ifIXeqsr11call_traitsIS0_T_FvT0_EEE8overloadLNS_13overload_typeE4EENS_11call_traitsIS0_SM_SO_vvvvvvvE11result_typeEE4typeEOSM_OSN_, symObjAddr: 0x16F94, symBinAddr: 0x100017D64, symSize: 0x40 }
  - { offset: 0x2D43A, size: 0x8, addend: 0x0, symName: __ZNK20boost_asio_prefer_fn4implclIRKN5boost4asio10io_context19basic_executor_typeINSt3__19allocatorIvEELm4EEERKNS3_9execution6detail16outstanding_work11untracked_tILi0EEEEENS6_9enable_ifIXeqsr11call_traitsIS0_T_FvT0_EEE8overloadLNS_13overload_typeE1EENS_11call_traitsIS0_SK_SM_vvvvvvvE11result_typeEE4typeEOSK_OSL_, symObjAddr: 0x17018, symBinAddr: 0x100017DE8, symSize: 0x34 }
  - { offset: 0x2D490, size: 0x8, addend: 0x0, symName: __ZNK5boost4asio10io_context19basic_executor_typeINSt3__19allocatorIvEELm4EE7requireENS0_9execution6detail16outstanding_work11untracked_tILi0EEE, symObjAddr: 0x1704C, symBinAddr: 0x100017E1C, symSize: 0x54 }
  - { offset: 0x2D4C1, size: 0x8, addend: 0x0, symName: __ZN5boost4asio9execution6detail17any_executor_base13query_fn_implINS0_10io_context19basic_executor_typeINSt3__19allocatorIvEELm4EEENS1_11prefer_onlyINS2_12relationship6fork_tILi0EEEEEEEvPvPKvSI_PNS7_9enable_ifIXntsr7is_sameIT_vEE5valueEvE4typeE, symObjAddr: 0x170A0, symBinAddr: 0x100017E70, symSize: 0x3C }
  - { offset: 0x2D526, size: 0x8, addend: 0x0, symName: __ZN5boost4asio9execution6detail17any_executor_base17query_fn_non_voidINS0_10io_context19basic_executor_typeINSt3__19allocatorIvEELm4EEENS1_11prefer_onlyINS2_12relationship6fork_tILi0EEEEEEEvPvPKvSI_PNS7_9enable_ifIXaaaaaasr5boost4asio9can_queryIRKT_RKT0_EE5valuentsr7is_sameINSN_29polymorphic_query_result_typeEvEE5valuentsr12is_referenceISQ_EE5valuentsr9is_scalarISQ_EE5valueEvE4typeE, symObjAddr: 0x170DC, symBinAddr: 0x100017EAC, symSize: 0x88 }
  - { offset: 0x2D58B, size: 0x8, addend: 0x0, symName: __ZNK19boost_asio_query_fn4implclIRKN5boost4asio10io_context19basic_executor_typeINSt3__19allocatorIvEELm4EEERKNS3_9execution11prefer_onlyINSC_6detail12relationship6fork_tILi0EEEEEEENS6_9enable_ifIXeqsr11call_traitsIS0_T_FvT0_EEE8overloadLNS_13overload_typeE2EENS_11call_traitsIS0_SM_SO_vvvvE11result_typeEE4typeEOSM_OSN_, symObjAddr: 0x17164, symBinAddr: 0x100017F34, symSize: 0x40 }
  - { offset: 0x2D5DF, size: 0x8, addend: 0x0, symName: __ZNK19boost_asio_query_fn4implclIRKN5boost4asio10io_context19basic_executor_typeINSt3__19allocatorIvEELm4EEERKNS3_9execution6detail12relationship6fork_tILi0EEEEENS6_9enable_ifIXeqsr11call_traitsIS0_T_FvT0_EEE8overloadLNS_13overload_typeE1EENS_11call_traitsIS0_SK_SM_vvvvE11result_typeEE4typeEOSK_OSL_, symObjAddr: 0x171E8, symBinAddr: 0x100017FB8, symSize: 0x4C }
  - { offset: 0x2D633, size: 0x8, addend: 0x0, symName: __ZNK5boost4asio10io_context19basic_executor_typeINSt3__19allocatorIvEELm4EE5queryENS0_9execution6detail14relationship_tILi0EEE, symObjAddr: 0x17234, symBinAddr: 0x100018004, symSize: 0x64 }
  - { offset: 0x2D664, size: 0x8, addend: 0x0, symName: __ZN5boost4asio9execution6detail14relationship_tILi0EEC1ENS2_12relationship6fork_tILi0EEE, symObjAddr: 0x17298, symBinAddr: 0x100018068, symSize: 0x2C }
  - { offset: 0x2D698, size: 0x8, addend: 0x0, symName: __ZN5boost4asio9execution6detail14relationship_tILi0EEC1ENS2_12relationship14continuation_tILi0EEE, symObjAddr: 0x172C4, symBinAddr: 0x100018094, symSize: 0x2C }
  - { offset: 0x2D6CC, size: 0x8, addend: 0x0, symName: __ZN5boost4asio9execution6detail14relationship_tILi0EEC2ENS2_12relationship14continuation_tILi0EEE, symObjAddr: 0x172F0, symBinAddr: 0x1000180C0, symSize: 0x1C }
  - { offset: 0x2D700, size: 0x8, addend: 0x0, symName: __ZN5boost4asio9execution6detail14relationship_tILi0EEC2ENS2_12relationship6fork_tILi0EEE, symObjAddr: 0x1730C, symBinAddr: 0x1000180DC, symSize: 0x18 }
  - { offset: 0x2D734, size: 0x8, addend: 0x0, symName: __ZN5boost4asio9execution6detail17any_executor_base15require_fn_implINS1_12any_executorIJNS1_12context_as_tIRNS0_17execution_contextEEENS2_8blocking7never_tILi0EEENS1_11prefer_onlyINSA_10possibly_tILi0EEEEENSD_INS2_16outstanding_work9tracked_tILi0EEEEENSD_INSH_11untracked_tILi0EEEEENSD_INS2_12relationship6fork_tILi0EEEEENSD_INSO_14continuation_tILi0EEEEEEEENS0_10io_context19basic_executor_typeINSt3__19allocatorIvEELm4EEESR_EET_PKvS14_z, symObjAddr: 0x17324, symBinAddr: 0x1000180F4, symSize: 0x38 }
  - { offset: 0x2D781, size: 0x8, addend: 0x0, symName: __ZN5boost4asio9execution6detail17any_executor_base14prefer_fn_implINS1_12any_executorIJNS1_12context_as_tIRNS0_17execution_contextEEENS2_8blocking7never_tILi0EEENS1_11prefer_onlyINSA_10possibly_tILi0EEEEENSD_INS2_16outstanding_work9tracked_tILi0EEEEENSD_INSH_11untracked_tILi0EEEEENSD_INS2_12relationship6fork_tILi0EEEEENSD_INSO_14continuation_tILi0EEEEEEEENS0_10io_context19basic_executor_typeINSt3__19allocatorIvEELm4EEESR_EET_PKvS14_PNSY_9enable_ifIXaantsr7is_sameIT0_vEE5valuesrT1_13is_preferableEvE4typeE, symObjAddr: 0x1735C, symBinAddr: 0x10001812C, symSize: 0x84 }
  - { offset: 0x2D7DA, size: 0x8, addend: 0x0, symName: __ZNK20boost_asio_prefer_fn4implclIRKN5boost4asio10io_context19basic_executor_typeINSt3__19allocatorIvEELm4EEERKNS3_9execution11prefer_onlyINSC_6detail12relationship6fork_tILi0EEEEEEENS6_9enable_ifIXeqsr11call_traitsIS0_T_FvT0_EEE8overloadLNS_13overload_typeE4EENS_11call_traitsIS0_SM_SO_vvvvvvvE11result_typeEE4typeEOSM_OSN_, symObjAddr: 0x173E0, symBinAddr: 0x1000181B0, symSize: 0x40 }
  - { offset: 0x2D830, size: 0x8, addend: 0x0, symName: __ZNK20boost_asio_prefer_fn4implclIRKN5boost4asio10io_context19basic_executor_typeINSt3__19allocatorIvEELm4EEERKNS3_9execution6detail12relationship6fork_tILi0EEEEENS6_9enable_ifIXeqsr11call_traitsIS0_T_FvT0_EEE8overloadLNS_13overload_typeE1EENS_11call_traitsIS0_SK_SM_vvvvvvvE11result_typeEE4typeEOSK_OSL_, symObjAddr: 0x17464, symBinAddr: 0x100018234, symSize: 0x34 }
  - { offset: 0x2D886, size: 0x8, addend: 0x0, symName: __ZNK5boost4asio10io_context19basic_executor_typeINSt3__19allocatorIvEELm4EE7requireENS0_9execution6detail12relationship6fork_tILi0EEE, symObjAddr: 0x17498, symBinAddr: 0x100018268, symSize: 0x58 }
  - { offset: 0x2D8B7, size: 0x8, addend: 0x0, symName: __ZN5boost4asio9execution6detail17any_executor_base13query_fn_implINS0_10io_context19basic_executor_typeINSt3__19allocatorIvEELm4EEENS1_11prefer_onlyINS2_12relationship14continuation_tILi0EEEEEEEvPvPKvSI_PNS7_9enable_ifIXntsr7is_sameIT_vEE5valueEvE4typeE, symObjAddr: 0x174F0, symBinAddr: 0x1000182C0, symSize: 0x3C }
  - { offset: 0x2D91C, size: 0x8, addend: 0x0, symName: __ZN5boost4asio9execution6detail17any_executor_base17query_fn_non_voidINS0_10io_context19basic_executor_typeINSt3__19allocatorIvEELm4EEENS1_11prefer_onlyINS2_12relationship14continuation_tILi0EEEEEEEvPvPKvSI_PNS7_9enable_ifIXaaaaaasr5boost4asio9can_queryIRKT_RKT0_EE5valuentsr7is_sameINSN_29polymorphic_query_result_typeEvEE5valuentsr12is_referenceISQ_EE5valuentsr9is_scalarISQ_EE5valueEvE4typeE, symObjAddr: 0x1752C, symBinAddr: 0x1000182FC, symSize: 0x88 }
  - { offset: 0x2D981, size: 0x8, addend: 0x0, symName: __ZNK19boost_asio_query_fn4implclIRKN5boost4asio10io_context19basic_executor_typeINSt3__19allocatorIvEELm4EEERKNS3_9execution11prefer_onlyINSC_6detail12relationship14continuation_tILi0EEEEEEENS6_9enable_ifIXeqsr11call_traitsIS0_T_FvT0_EEE8overloadLNS_13overload_typeE2EENS_11call_traitsIS0_SM_SO_vvvvE11result_typeEE4typeEOSM_OSN_, symObjAddr: 0x175B4, symBinAddr: 0x100018384, symSize: 0x40 }
  - { offset: 0x2D9D5, size: 0x8, addend: 0x0, symName: __ZNK19boost_asio_query_fn4implclIRKN5boost4asio10io_context19basic_executor_typeINSt3__19allocatorIvEELm4EEERKNS3_9execution6detail12relationship14continuation_tILi0EEEEENS6_9enable_ifIXeqsr11call_traitsIS0_T_FvT0_EEE8overloadLNS_13overload_typeE1EENS_11call_traitsIS0_SK_SM_vvvvE11result_typeEE4typeEOSK_OSL_, symObjAddr: 0x17638, symBinAddr: 0x100018408, symSize: 0x4C }
  - { offset: 0x2DA29, size: 0x8, addend: 0x0, symName: __ZN5boost4asio9execution6detail17any_executor_base15require_fn_implINS1_12any_executorIJNS1_12context_as_tIRNS0_17execution_contextEEENS2_8blocking7never_tILi0EEENS1_11prefer_onlyINSA_10possibly_tILi0EEEEENSD_INS2_16outstanding_work9tracked_tILi0EEEEENSD_INSH_11untracked_tILi0EEEEENSD_INS2_12relationship6fork_tILi0EEEEENSD_INSO_14continuation_tILi0EEEEEEEENS0_10io_context19basic_executor_typeINSt3__19allocatorIvEELm4EEESU_EET_PKvS14_z, symObjAddr: 0x17684, symBinAddr: 0x100018454, symSize: 0x38 }
  - { offset: 0x2DA76, size: 0x8, addend: 0x0, symName: __ZN5boost4asio9execution6detail17any_executor_base14prefer_fn_implINS1_12any_executorIJNS1_12context_as_tIRNS0_17execution_contextEEENS2_8blocking7never_tILi0EEENS1_11prefer_onlyINSA_10possibly_tILi0EEEEENSD_INS2_16outstanding_work9tracked_tILi0EEEEENSD_INSH_11untracked_tILi0EEEEENSD_INS2_12relationship6fork_tILi0EEEEENSD_INSO_14continuation_tILi0EEEEEEEENS0_10io_context19basic_executor_typeINSt3__19allocatorIvEELm4EEESU_EET_PKvS14_PNSY_9enable_ifIXaantsr7is_sameIT0_vEE5valuesrT1_13is_preferableEvE4typeE, symObjAddr: 0x176BC, symBinAddr: 0x10001848C, symSize: 0x84 }
  - { offset: 0x2DACF, size: 0x8, addend: 0x0, symName: __ZNK20boost_asio_prefer_fn4implclIRKN5boost4asio10io_context19basic_executor_typeINSt3__19allocatorIvEELm4EEERKNS3_9execution11prefer_onlyINSC_6detail12relationship14continuation_tILi0EEEEEEENS6_9enable_ifIXeqsr11call_traitsIS0_T_FvT0_EEE8overloadLNS_13overload_typeE4EENS_11call_traitsIS0_SM_SO_vvvvvvvE11result_typeEE4typeEOSM_OSN_, symObjAddr: 0x17740, symBinAddr: 0x100018510, symSize: 0x40 }
  - { offset: 0x2DB25, size: 0x8, addend: 0x0, symName: __ZNK20boost_asio_prefer_fn4implclIRKN5boost4asio10io_context19basic_executor_typeINSt3__19allocatorIvEELm4EEERKNS3_9execution6detail12relationship14continuation_tILi0EEEEENS6_9enable_ifIXeqsr11call_traitsIS0_T_FvT0_EEE8overloadLNS_13overload_typeE1EENS_11call_traitsIS0_SK_SM_vvvvvvvE11result_typeEE4typeEOSK_OSL_, symObjAddr: 0x177C4, symBinAddr: 0x100018594, symSize: 0x34 }
  - { offset: 0x2DB7B, size: 0x8, addend: 0x0, symName: __ZNK5boost4asio10io_context19basic_executor_typeINSt3__19allocatorIvEELm4EE7requireENS0_9execution6detail12relationship14continuation_tILi0EEE, symObjAddr: 0x177F8, symBinAddr: 0x1000185C8, symSize: 0x58 }
  - { offset: 0x2DBAC, size: 0x8, addend: 0x0, symName: __ZN5boost4asio10io_context19basic_executor_typeINSt3__19allocatorIvEELm4EED2Ev, symObjAddr: 0x17850, symBinAddr: 0x100018620, symSize: 0x5C }
  - { offset: 0x2DBD6, size: 0x8, addend: 0x0, symName: __ZN5boost4asio9execution6detail17any_executor_base13query_fn_implINS0_10io_context19basic_executor_typeINSt3__19allocatorIvEELm0EEENS1_11prefer_onlyINS2_16outstanding_work11untracked_tILi0EEEEEEEvPvPKvSI_PNS7_9enable_ifIXntsr7is_sameIT_vEE5valueEvE4typeE, symObjAddr: 0x178AC, symBinAddr: 0x10001867C, symSize: 0x3C }
  - { offset: 0x2DC3B, size: 0x8, addend: 0x0, symName: __ZN5boost4asio9execution6detail17any_executor_base17query_fn_non_voidINS0_10io_context19basic_executor_typeINSt3__19allocatorIvEELm0EEENS1_11prefer_onlyINS2_16outstanding_work11untracked_tILi0EEEEEEEvPvPKvSI_PNS7_9enable_ifIXaaaaaasr5boost4asio9can_queryIRKT_RKT0_EE5valuentsr7is_sameINSN_29polymorphic_query_result_typeEvEE5valuentsr12is_referenceISQ_EE5valuentsr9is_scalarISQ_EE5valueEvE4typeE, symObjAddr: 0x178E8, symBinAddr: 0x1000186B8, symSize: 0x5C }
  - { offset: 0x2DC9A, size: 0x8, addend: 0x0, symName: __ZNK19boost_asio_query_fn4implclIRKN5boost4asio10io_context19basic_executor_typeINSt3__19allocatorIvEELm0EEERKNS3_9execution11prefer_onlyINSC_6detail16outstanding_work11untracked_tILi0EEEEEEENS6_9enable_ifIXeqsr11call_traitsIS0_T_FvT0_EEE8overloadLNS_13overload_typeE0EENS_11call_traitsIS0_SM_SO_vvvvE11result_typeEE4typeEOSM_OSN_, symObjAddr: 0x17944, symBinAddr: 0x100018714, symSize: 0x30 }
  - { offset: 0x2DCE6, size: 0x8, addend: 0x0, symName: __ZN5boost4asio6detail18static_query_traitINS0_10io_context19basic_executor_typeINSt3__19allocatorIvEELm0EEENS0_9execution11prefer_onlyINS9_6detail16outstanding_work11untracked_tILi0EEEEEvE5valueEv, symObjAddr: 0x17974, symBinAddr: 0x100018744, symSize: 0x20 }
  - { offset: 0x2DCFA, size: 0x8, addend: 0x0, symName: __ZN5boost4asio9execution6detail17any_executor_base15require_fn_implINS1_12any_executorIJNS1_12context_as_tIRNS0_17execution_contextEEENS2_8blocking7never_tILi0EEENS1_11prefer_onlyINSA_10possibly_tILi0EEEEENSD_INS2_16outstanding_work9tracked_tILi0EEEEENSD_INSH_11untracked_tILi0EEEEENSD_INS2_12relationship6fork_tILi0EEEEENSD_INSO_14continuation_tILi0EEEEEEEENS0_10io_context19basic_executor_typeINSt3__19allocatorIvEELm0EEESN_EET_PKvS14_z, symObjAddr: 0x17994, symBinAddr: 0x100018764, symSize: 0x38 }
  - { offset: 0x2DD47, size: 0x8, addend: 0x0, symName: __ZN5boost4asio9execution6detail17any_executor_base14prefer_fn_implINS1_12any_executorIJNS1_12context_as_tIRNS0_17execution_contextEEENS2_8blocking7never_tILi0EEENS1_11prefer_onlyINSA_10possibly_tILi0EEEEENSD_INS2_16outstanding_work9tracked_tILi0EEEEENSD_INSH_11untracked_tILi0EEEEENSD_INS2_12relationship6fork_tILi0EEEEENSD_INSO_14continuation_tILi0EEEEEEEENS0_10io_context19basic_executor_typeINSt3__19allocatorIvEELm0EEESN_EET_PKvS14_PNSY_9enable_ifIXaantsr7is_sameIT0_vEE5valuesrT1_13is_preferableEvE4typeE, symObjAddr: 0x179CC, symBinAddr: 0x10001879C, symSize: 0x8C }
  - { offset: 0x2DDA0, size: 0x8, addend: 0x0, symName: __ZNK20boost_asio_prefer_fn4implclIRKN5boost4asio10io_context19basic_executor_typeINSt3__19allocatorIvEELm0EEERKNS3_9execution11prefer_onlyINSC_6detail16outstanding_work11untracked_tILi0EEEEEEENS6_9enable_ifIXeqsr11call_traitsIS0_T_FvT0_EEE8overloadLNS_13overload_typeE4EENS_11call_traitsIS0_SM_SO_vvvvvvvE11result_typeEE4typeEOSM_OSN_, symObjAddr: 0x17A58, symBinAddr: 0x100018828, symSize: 0x38 }
  - { offset: 0x2DDF6, size: 0x8, addend: 0x0, symName: __ZNK20boost_asio_prefer_fn4implclIRKN5boost4asio10io_context19basic_executor_typeINSt3__19allocatorIvEELm0EEERKNS3_9execution6detail16outstanding_work11untracked_tILi0EEEEENS6_9enable_ifIXeqsr11call_traitsIS0_T_FvT0_EEE8overloadLNS_13overload_typeE0EENS_11call_traitsIS0_SK_SM_vvvvvvvE11result_typeEE4typeEOSK_OSL_, symObjAddr: 0x17ACC, symBinAddr: 0x10001889C, symSize: 0x1C }
  - { offset: 0x2DE48, size: 0x8, addend: 0x0, symName: __ZN5boost4asio9execution6detail17any_executor_base13query_fn_implINS0_10io_context19basic_executor_typeINSt3__19allocatorIvEELm0EEENS1_11prefer_onlyINS2_12relationship6fork_tILi0EEEEEEEvPvPKvSI_PNS7_9enable_ifIXntsr7is_sameIT_vEE5valueEvE4typeE, symObjAddr: 0x17AE8, symBinAddr: 0x1000188B8, symSize: 0x3C }
  - { offset: 0x2DEAD, size: 0x8, addend: 0x0, symName: __ZN5boost4asio9execution6detail17any_executor_base17query_fn_non_voidINS0_10io_context19basic_executor_typeINSt3__19allocatorIvEELm0EEENS1_11prefer_onlyINS2_12relationship6fork_tILi0EEEEEEEvPvPKvSI_PNS7_9enable_ifIXaaaaaasr5boost4asio9can_queryIRKT_RKT0_EE5valuentsr7is_sameINSN_29polymorphic_query_result_typeEvEE5valuentsr12is_referenceISQ_EE5valuentsr9is_scalarISQ_EE5valueEvE4typeE, symObjAddr: 0x17B24, symBinAddr: 0x1000188F4, symSize: 0x88 }
  - { offset: 0x2DF0C, size: 0x8, addend: 0x0, symName: __ZNK19boost_asio_query_fn4implclIRKN5boost4asio10io_context19basic_executor_typeINSt3__19allocatorIvEELm0EEERKNS3_9execution11prefer_onlyINSC_6detail12relationship6fork_tILi0EEEEEEENS6_9enable_ifIXeqsr11call_traitsIS0_T_FvT0_EEE8overloadLNS_13overload_typeE2EENS_11call_traitsIS0_SM_SO_vvvvE11result_typeEE4typeEOSM_OSN_, symObjAddr: 0x17BAC, symBinAddr: 0x10001897C, symSize: 0x40 }
  - { offset: 0x2DF60, size: 0x8, addend: 0x0, symName: __ZNK19boost_asio_query_fn4implclIRKN5boost4asio10io_context19basic_executor_typeINSt3__19allocatorIvEELm0EEERKNS3_9execution6detail12relationship6fork_tILi0EEEEENS6_9enable_ifIXeqsr11call_traitsIS0_T_FvT0_EEE8overloadLNS_13overload_typeE1EENS_11call_traitsIS0_SK_SM_vvvvE11result_typeEE4typeEOSK_OSL_, symObjAddr: 0x17C30, symBinAddr: 0x100018A00, symSize: 0x4C }
  - { offset: 0x2DFB4, size: 0x8, addend: 0x0, symName: __ZNK5boost4asio10io_context19basic_executor_typeINSt3__19allocatorIvEELm0EE5queryENS0_9execution6detail14relationship_tILi0EEE, symObjAddr: 0x17C7C, symBinAddr: 0x100018A4C, symSize: 0x64 }
  - { offset: 0x2DFE5, size: 0x8, addend: 0x0, symName: __ZN5boost4asio9execution6detail17any_executor_base15require_fn_implINS1_12any_executorIJNS1_12context_as_tIRNS0_17execution_contextEEENS2_8blocking7never_tILi0EEENS1_11prefer_onlyINSA_10possibly_tILi0EEEEENSD_INS2_16outstanding_work9tracked_tILi0EEEEENSD_INSH_11untracked_tILi0EEEEENSD_INS2_12relationship6fork_tILi0EEEEENSD_INSO_14continuation_tILi0EEEEEEEENS0_10io_context19basic_executor_typeINSt3__19allocatorIvEELm0EEESR_EET_PKvS14_z, symObjAddr: 0x17CE0, symBinAddr: 0x100018AB0, symSize: 0x38 }
  - { offset: 0x2E032, size: 0x8, addend: 0x0, symName: __ZN5boost4asio9execution6detail17any_executor_base14prefer_fn_implINS1_12any_executorIJNS1_12context_as_tIRNS0_17execution_contextEEENS2_8blocking7never_tILi0EEENS1_11prefer_onlyINSA_10possibly_tILi0EEEEENSD_INS2_16outstanding_work9tracked_tILi0EEEEENSD_INSH_11untracked_tILi0EEEEENSD_INS2_12relationship6fork_tILi0EEEEENSD_INSO_14continuation_tILi0EEEEEEEENS0_10io_context19basic_executor_typeINSt3__19allocatorIvEELm0EEESR_EET_PKvS14_PNSY_9enable_ifIXaantsr7is_sameIT0_vEE5valuesrT1_13is_preferableEvE4typeE, symObjAddr: 0x17D18, symBinAddr: 0x100018AE8, symSize: 0x84 }
  - { offset: 0x2E08B, size: 0x8, addend: 0x0, symName: __ZNK20boost_asio_prefer_fn4implclIRKN5boost4asio10io_context19basic_executor_typeINSt3__19allocatorIvEELm0EEERKNS3_9execution11prefer_onlyINSC_6detail12relationship6fork_tILi0EEEEEEENS6_9enable_ifIXeqsr11call_traitsIS0_T_FvT0_EEE8overloadLNS_13overload_typeE4EENS_11call_traitsIS0_SM_SO_vvvvvvvE11result_typeEE4typeEOSM_OSN_, symObjAddr: 0x17D9C, symBinAddr: 0x100018B6C, symSize: 0x40 }
  - { offset: 0x2E0E1, size: 0x8, addend: 0x0, symName: __ZNK20boost_asio_prefer_fn4implclIRKN5boost4asio10io_context19basic_executor_typeINSt3__19allocatorIvEELm0EEERKNS3_9execution6detail12relationship6fork_tILi0EEEEENS6_9enable_ifIXeqsr11call_traitsIS0_T_FvT0_EEE8overloadLNS_13overload_typeE1EENS_11call_traitsIS0_SK_SM_vvvvvvvE11result_typeEE4typeEOSK_OSL_, symObjAddr: 0x17E20, symBinAddr: 0x100018BF0, symSize: 0x34 }
  - { offset: 0x2E137, size: 0x8, addend: 0x0, symName: __ZNK5boost4asio10io_context19basic_executor_typeINSt3__19allocatorIvEELm0EE7requireENS0_9execution6detail12relationship6fork_tILi0EEE, symObjAddr: 0x17E54, symBinAddr: 0x100018C24, symSize: 0x58 }
  - { offset: 0x2E168, size: 0x8, addend: 0x0, symName: __ZN5boost4asio9execution6detail17any_executor_base13query_fn_implINS0_10io_context19basic_executor_typeINSt3__19allocatorIvEELm0EEENS1_11prefer_onlyINS2_12relationship14continuation_tILi0EEEEEEEvPvPKvSI_PNS7_9enable_ifIXntsr7is_sameIT_vEE5valueEvE4typeE, symObjAddr: 0x17EAC, symBinAddr: 0x100018C7C, symSize: 0x3C }
  - { offset: 0x2E1CD, size: 0x8, addend: 0x0, symName: __ZN5boost4asio9execution6detail17any_executor_base17query_fn_non_voidINS0_10io_context19basic_executor_typeINSt3__19allocatorIvEELm0EEENS1_11prefer_onlyINS2_12relationship14continuation_tILi0EEEEEEEvPvPKvSI_PNS7_9enable_ifIXaaaaaasr5boost4asio9can_queryIRKT_RKT0_EE5valuentsr7is_sameINSN_29polymorphic_query_result_typeEvEE5valuentsr12is_referenceISQ_EE5valuentsr9is_scalarISQ_EE5valueEvE4typeE, symObjAddr: 0x17EE8, symBinAddr: 0x100018CB8, symSize: 0x88 }
  - { offset: 0x2E22C, size: 0x8, addend: 0x0, symName: __ZNK19boost_asio_query_fn4implclIRKN5boost4asio10io_context19basic_executor_typeINSt3__19allocatorIvEELm0EEERKNS3_9execution11prefer_onlyINSC_6detail12relationship14continuation_tILi0EEEEEEENS6_9enable_ifIXeqsr11call_traitsIS0_T_FvT0_EEE8overloadLNS_13overload_typeE2EENS_11call_traitsIS0_SM_SO_vvvvE11result_typeEE4typeEOSM_OSN_, symObjAddr: 0x17F70, symBinAddr: 0x100018D40, symSize: 0x40 }
  - { offset: 0x2E280, size: 0x8, addend: 0x0, symName: __ZNK19boost_asio_query_fn4implclIRKN5boost4asio10io_context19basic_executor_typeINSt3__19allocatorIvEELm0EEERKNS3_9execution6detail12relationship14continuation_tILi0EEEEENS6_9enable_ifIXeqsr11call_traitsIS0_T_FvT0_EEE8overloadLNS_13overload_typeE1EENS_11call_traitsIS0_SK_SM_vvvvE11result_typeEE4typeEOSK_OSL_, symObjAddr: 0x17FF4, symBinAddr: 0x100018DC4, symSize: 0x4C }
  - { offset: 0x2E2D4, size: 0x8, addend: 0x0, symName: __ZN5boost4asio9execution6detail17any_executor_base15require_fn_implINS1_12any_executorIJNS1_12context_as_tIRNS0_17execution_contextEEENS2_8blocking7never_tILi0EEENS1_11prefer_onlyINSA_10possibly_tILi0EEEEENSD_INS2_16outstanding_work9tracked_tILi0EEEEENSD_INSH_11untracked_tILi0EEEEENSD_INS2_12relationship6fork_tILi0EEEEENSD_INSO_14continuation_tILi0EEEEEEEENS0_10io_context19basic_executor_typeINSt3__19allocatorIvEELm0EEESU_EET_PKvS14_z, symObjAddr: 0x18040, symBinAddr: 0x100018E10, symSize: 0x38 }
  - { offset: 0x2E321, size: 0x8, addend: 0x0, symName: __ZN5boost4asio9execution6detail17any_executor_base14prefer_fn_implINS1_12any_executorIJNS1_12context_as_tIRNS0_17execution_contextEEENS2_8blocking7never_tILi0EEENS1_11prefer_onlyINSA_10possibly_tILi0EEEEENSD_INS2_16outstanding_work9tracked_tILi0EEEEENSD_INSH_11untracked_tILi0EEEEENSD_INS2_12relationship6fork_tILi0EEEEENSD_INSO_14continuation_tILi0EEEEEEEENS0_10io_context19basic_executor_typeINSt3__19allocatorIvEELm0EEESU_EET_PKvS14_PNSY_9enable_ifIXaantsr7is_sameIT0_vEE5valuesrT1_13is_preferableEvE4typeE, symObjAddr: 0x18078, symBinAddr: 0x100018E48, symSize: 0x84 }
  - { offset: 0x2E37A, size: 0x8, addend: 0x0, symName: __ZNK20boost_asio_prefer_fn4implclIRKN5boost4asio10io_context19basic_executor_typeINSt3__19allocatorIvEELm0EEERKNS3_9execution11prefer_onlyINSC_6detail12relationship14continuation_tILi0EEEEEEENS6_9enable_ifIXeqsr11call_traitsIS0_T_FvT0_EEE8overloadLNS_13overload_typeE4EENS_11call_traitsIS0_SM_SO_vvvvvvvE11result_typeEE4typeEOSM_OSN_, symObjAddr: 0x180FC, symBinAddr: 0x100018ECC, symSize: 0x40 }
  - { offset: 0x2E3D0, size: 0x8, addend: 0x0, symName: __ZNK20boost_asio_prefer_fn4implclIRKN5boost4asio10io_context19basic_executor_typeINSt3__19allocatorIvEELm0EEERKNS3_9execution6detail12relationship14continuation_tILi0EEEEENS6_9enable_ifIXeqsr11call_traitsIS0_T_FvT0_EEE8overloadLNS_13overload_typeE1EENS_11call_traitsIS0_SK_SM_vvvvvvvE11result_typeEE4typeEOSK_OSL_, symObjAddr: 0x18180, symBinAddr: 0x100018F50, symSize: 0x34 }
  - { offset: 0x2E426, size: 0x8, addend: 0x0, symName: __ZNK5boost4asio10io_context19basic_executor_typeINSt3__19allocatorIvEELm0EE7requireENS0_9execution6detail12relationship14continuation_tILi0EEE, symObjAddr: 0x181B4, symBinAddr: 0x100018F84, symSize: 0x58 }
  - { offset: 0x2E457, size: 0x8, addend: 0x0, symName: __ZNK5boost4asio9execution6detail17any_executor_basentEv, symObjAddr: 0x1820C, symBinAddr: 0x100018FDC, symSize: 0x24 }
  - { offset: 0x2E47D, size: 0x8, addend: 0x0, symName: __ZN5boost4asio10io_context19basic_executor_typeINSt3__19allocatorIvEELm0EED2Ev, symObjAddr: 0x18230, symBinAddr: 0x100019000, symSize: 0x14 }
  - { offset: 0x2E4A7, size: 0x8, addend: 0x0, symName: __ZN5boost4asio15any_io_executorD2Ev, symObjAddr: 0x18244, symBinAddr: 0x100019014, symSize: 0x2C }
  - { offset: 0x2E4D3, size: 0x8, addend: 0x0, symName: __ZN5boost4asio9execution12any_executorIJNS1_12context_as_tIRNS0_17execution_contextEEENS1_6detail8blocking7never_tILi0EEENS1_11prefer_onlyINS8_10possibly_tILi0EEEEENSB_INS7_16outstanding_work9tracked_tILi0EEEEENSB_INSF_11untracked_tILi0EEEEENSB_INS7_12relationship6fork_tILi0EEEEENSB_INSM_14continuation_tILi0EEEEEEED2Ev, symObjAddr: 0x18270, symBinAddr: 0x100019040, symSize: 0x2C }
  - { offset: 0x2E500, size: 0x8, addend: 0x0, symName: __ZNK5boost4asio2ip6detail8endpoint5is_v4Ev, symObjAddr: 0x1829C, symBinAddr: 0x10001906C, symSize: 0x24 }
  - { offset: 0x2E526, size: 0x8, addend: 0x0, symName: __ZN5boost4asio2ip3udp2v6Ev, symObjAddr: 0x182C0, symBinAddr: 0x100019090, symSize: 0x28 }
  - { offset: 0x2E53A, size: 0x8, addend: 0x0, symName: __ZN5boost4asio6detail28reactive_socket_service_base7do_openERNS2_24base_implementation_typeEiiiRNS_6system10error_codeE, symObjAddr: 0x182E8, symBinAddr: 0x1000190B8, symSize: 0x268 }
  - { offset: 0x2E5CB, size: 0x8, addend: 0x0, symName: __ZNK5boost4asio2ip3udp4typeEv, symObjAddr: 0x18550, symBinAddr: 0x100019320, symSize: 0x14 }
  - { offset: 0x2E5F1, size: 0x8, addend: 0x0, symName: __ZNK5boost4asio2ip3udp8protocolEv, symObjAddr: 0x18564, symBinAddr: 0x100019334, symSize: 0x14 }
  - { offset: 0x2E617, size: 0x8, addend: 0x0, symName: __ZN5boost6system10error_code6assignERKS1_PKNS_15source_locationE, symObjAddr: 0x18578, symBinAddr: 0x100019348, symSize: 0x50 }
  - { offset: 0x2E659, size: 0x8, addend: 0x0, symName: __ZNK5boost4asio6detail28reactive_socket_service_base7is_openERKNS2_24base_implementation_typeE, symObjAddr: 0x185C8, symBinAddr: 0x100019398, symSize: 0x28 }
  - { offset: 0x2E68D, size: 0x8, addend: 0x0, symName: __ZN5boost6system10error_codeaSINS_4asio5error11misc_errorsEEERNSt3__19enable_ifIXsr18is_error_code_enumIT_EE5valueES1_E4typeES8_, symObjAddr: 0x185F0, symBinAddr: 0x1000193C0, symSize: 0x50 }
  - { offset: 0x2E6DC, size: 0x8, addend: 0x0, symName: __ZN5boost4asio6detail13socket_holderC1Ei, symObjAddr: 0x18728, symBinAddr: 0x1000194F8, symSize: 0x34 }
  - { offset: 0x2E714, size: 0x8, addend: 0x0, symName: __ZNK5boost4asio6detail13socket_holder3getEv, symObjAddr: 0x1875C, symBinAddr: 0x10001952C, symSize: 0x18 }
  - { offset: 0x2E73A, size: 0x8, addend: 0x0, symName: __ZN5boost4asio6detail14kqueue_reactor19register_descriptorEiRPNS2_16descriptor_stateE, symObjAddr: 0x18774, symBinAddr: 0x100019544, symSize: 0x88 }
  - { offset: 0x2E78C, size: 0x8, addend: 0x0, symName: __ZN5boost4asio6detail13socket_holder7releaseEv, symObjAddr: 0x187FC, symBinAddr: 0x1000195CC, symSize: 0x28 }
  - { offset: 0x2E7C0, size: 0x8, addend: 0x0, symName: __ZN5boost4asio6detail13socket_holderD1Ev, symObjAddr: 0x18824, symBinAddr: 0x1000195F4, symSize: 0x2C }
  - { offset: 0x2E7EA, size: 0x8, addend: 0x0, symName: __ZN5boost4asio6detail13socket_holderC2Ei, symObjAddr: 0x1888C, symBinAddr: 0x10001965C, symSize: 0x38 }
  - { offset: 0x2E822, size: 0x8, addend: 0x0, symName: __ZN5boost4asio6detail14kqueue_reactor25allocate_descriptor_stateEv, symObjAddr: 0x188C4, symBinAddr: 0x100019694, symSize: 0x7C }
  - { offset: 0x2E85A, size: 0x8, addend: 0x0, symName: __ZN5boost4asio6detail11object_poolINS1_14kqueue_reactor16descriptor_stateEE5allocIJbiEEEPS4_DpT_, symObjAddr: 0x18940, symBinAddr: 0x100019710, symSize: 0xF4 }
  - { offset: 0x2E8BA, size: 0x8, addend: 0x0, symName: __ZN5boost4asio6detail13socket_holderD2Ev, symObjAddr: 0x18A34, symBinAddr: 0x100019804, symSize: 0x84 }
  - { offset: 0x2E90C, size: 0x8, addend: 0x0, symName: __ZN5boost6system10error_codeC1INS_4asio5error12basic_errorsEEET_PNSt3__19enable_ifIXoosr18is_error_code_enumIS6_EE5valuesr3std18is_error_code_enumIS6_EE5valueEvE4typeE, symObjAddr: 0x190D4, symBinAddr: 0x100019EA4, symSize: 0x3C }
  - { offset: 0x2E957, size: 0x8, addend: 0x0, symName: __ZNKSt3__114error_categoryeqB8ne180100ERKS0_, symObjAddr: 0x191E0, symBinAddr: 0x100019FB0, symSize: 0x28 }
  - { offset: 0x2E98B, size: 0x8, addend: 0x0, symName: __ZN5boost6system10error_codeC2INS_4asio5error12basic_errorsEEET_PNSt3__19enable_ifIXoosr18is_error_code_enumIS6_EE5valuesr3std18is_error_code_enumIS6_EE5valueEvE4typeE, symObjAddr: 0x19208, symBinAddr: 0x100019FD8, symSize: 0x58 }
  - { offset: 0x2E9D6, size: 0x8, addend: 0x0, symName: __ZN5boost6system10error_codeC1ERKS1_PKNS_15source_locationE, symObjAddr: 0x19260, symBinAddr: 0x10001A030, symSize: 0x3C }
  - { offset: 0x2EA1C, size: 0x8, addend: 0x0, symName: __ZN5boost6system10error_codeC2ERKS1_PKNS_15source_locationE, symObjAddr: 0x1929C, symBinAddr: 0x10001A06C, symSize: 0xC8 }
  - { offset: 0x2EA62, size: 0x8, addend: 0x0, symName: __ZNK5boost4asio2ip14basic_endpointINS1_3udpEE4dataEv, symObjAddr: 0x193F8, symBinAddr: 0x10001A1C8, symSize: 0x24 }
  - { offset: 0x2EA88, size: 0x8, addend: 0x0, symName: __ZNK5boost4asio2ip14basic_endpointINS1_3udpEE4sizeEv, symObjAddr: 0x1941C, symBinAddr: 0x10001A1EC, symSize: 0x24 }
  - { offset: 0x2EAAE, size: 0x8, addend: 0x0, symName: __ZNK5boost4asio2ip6detail8endpoint4dataEv, symObjAddr: 0x1947C, symBinAddr: 0x10001A24C, symSize: 0x14 }
  - { offset: 0x2EAD4, size: 0x8, addend: 0x0, symName: __ZNK5boost4asio2ip6detail8endpoint4sizeEv, symObjAddr: 0x19490, symBinAddr: 0x10001A260, symSize: 0x48 }
  - { offset: 0x2EAFA, size: 0x8, addend: 0x0, symName: __ZN5boost4asio6detail14io_object_implINS1_23reactive_socket_serviceINS0_2ip3udpEEENS0_15any_io_executorEED2Ev, symObjAddr: 0x194D8, symBinAddr: 0x10001A2A8, symSize: 0x4C }
  - { offset: 0x2EB24, size: 0x8, addend: 0x0, symName: __ZN5boost4asio6detail28reactive_socket_service_base7destroyERNS2_24base_implementation_typeE, symObjAddr: 0x19524, symBinAddr: 0x10001A2F4, symSize: 0xBC }
  - { offset: 0x2EB76, size: 0x8, addend: 0x0, symName: __ZN5boost4asio6detail14kqueue_reactor21deregister_descriptorEiRPNS2_16descriptor_stateEb, symObjAddr: 0x195E0, symBinAddr: 0x10001A3B0, symSize: 0x2F8 }
  - { offset: 0x2EC79, size: 0x8, addend: 0x0, symName: __ZN5boost4asio6detail14kqueue_reactor23cleanup_descriptor_dataERPNS2_16descriptor_stateE, symObjAddr: 0x198D8, symBinAddr: 0x10001A6A8, symSize: 0x5C }
  - { offset: 0x2ECB1, size: 0x8, addend: 0x0, symName: __ZN5boost4asio6detail9scheduler25post_deferred_completionsERNS1_8op_queueINS1_19scheduler_operationEEE, symObjAddr: 0x19934, symBinAddr: 0x10001A704, symSize: 0xE0 }
  - { offset: 0x2ED13, size: 0x8, addend: 0x0, symName: __ZN5boost4asio6detail14kqueue_reactor21free_descriptor_stateEPNS2_16descriptor_stateE, symObjAddr: 0x19A14, symBinAddr: 0x10001A7E4, symSize: 0x50 }
  - { offset: 0x2ED5A, size: 0x8, addend: 0x0, symName: __ZN5boost4asio6detail10service_idINS1_23reactive_socket_serviceINS0_2ip3udpEEEEC2Ev, symObjAddr: 0x19A64, symBinAddr: 0x10001A834, symSize: 0x2C }
  - { offset: 0x2ED87, size: 0x8, addend: 0x0, symName: __ZN5boost4asio6detail10service_idINS1_23reactive_socket_serviceINS0_2ip3udpEEEED2Ev, symObjAddr: 0x19A90, symBinAddr: 0x10001A860, symSize: 0x2C }
  - { offset: 0x2EDB4, size: 0x8, addend: 0x0, symName: __ZN5boost4asio21basic_datagram_socketINS0_2ip3udpENS0_15any_io_executorEED2Ev, symObjAddr: 0x19ABC, symBinAddr: 0x10001A88C, symSize: 0x2C }
  - { offset: 0x2EDDE, size: 0x8, addend: 0x0, symName: __ZN5boost4asio12basic_socketINS0_2ip3udpENS0_15any_io_executorEED2Ev, symObjAddr: 0x19AE8, symBinAddr: 0x10001A8B8, symSize: 0x34 }
  - { offset: 0x2EE08, size: 0x8, addend: 0x0, symName: __ZNSt3__16chrono8durationIxNS_5ratioILl1ELl1EEEE4zeroB8ne180100Ev, symObjAddr: 0x19BCC, symBinAddr: 0x10001A99C, symSize: 0x38 }
  - { offset: 0x2EE2C, size: 0x8, addend: 0x0, symName: __ZNSt3__120_CmpUnspecifiedParamC1B8ne180100EMS0_i, symObjAddr: 0x19C04, symBinAddr: 0x10001A9D4, symSize: 0x34 }
  - { offset: 0x2EE60, size: 0x8, addend: 0x0, symName: __ZNSt3__16chrono8durationIxNS_5ratioILl1ELl1000000000EEEEppB8ne180100Ev, symObjAddr: 0x19E14, symBinAddr: 0x10001ABE4, symSize: 0x20 }
  - { offset: 0x2EE86, size: 0x8, addend: 0x0, symName: __ZNSt3__16chrono8durationIxNS_5ratioILl1ELl1000000000EEEE3maxB8ne180100Ev, symObjAddr: 0x19E34, symBinAddr: 0x10001AC04, symSize: 0x38 }
  - { offset: 0x2EE9A, size: 0x8, addend: 0x0, symName: __ZNKSt3__16chrono8durationIxNS_5ratioILl1ELl1EEEE5countB8ne180100Ev, symObjAddr: 0x19E6C, symBinAddr: 0x10001AC3C, symSize: 0x18 }
  - { offset: 0x2EEC0, size: 0x8, addend: 0x0, symName: __ZNSt3__16chrono15duration_valuesIxE4zeroB8ne180100Ev, symObjAddr: 0x19E84, symBinAddr: 0x10001AC54, symSize: 0x8 }
  - { offset: 0x2EEE0, size: 0x8, addend: 0x0, symName: __ZNSt3__16chrono8durationIxNS_5ratioILl1ELl1EEEEC1B8ne180100IxLi0EEERKT_, symObjAddr: 0x19E8C, symBinAddr: 0x10001AC5C, symSize: 0x34 }
  - { offset: 0x2EF28, size: 0x8, addend: 0x0, symName: __ZNSt3__16chrono8durationIxNS_5ratioILl1ELl1EEEEC2B8ne180100IxLi0EEERKT_, symObjAddr: 0x19EC0, symBinAddr: 0x10001AC90, symSize: 0x24 }
  - { offset: 0x2EF70, size: 0x8, addend: 0x0, symName: __ZNSt3__120_CmpUnspecifiedParamC2B8ne180100EMS0_i, symObjAddr: 0x19EE4, symBinAddr: 0x10001ACB4, symSize: 0x18 }
  - { offset: 0x2EFA4, size: 0x8, addend: 0x0, symName: __ZNKSt3__116partial_ordering12__is_orderedB8ne180100Ev, symObjAddr: 0x19EFC, symBinAddr: 0x10001ACCC, symSize: 0x24 }
  - { offset: 0x2EFCA, size: 0x8, addend: 0x0, symName: __ZNSt3__16chrono8durationIeNS_5ratioILl1ELl1EEEEC1B8ne180100IxS3_Li0EEERKNS1_IT_T0_EE, symObjAddr: 0x19F20, symBinAddr: 0x10001ACF0, symSize: 0x34 }
  - { offset: 0x2F01B, size: 0x8, addend: 0x0, symName: __ZNKSt3__16chrono8durationIeNS_5ratioILl1ELl1EEEE5countB8ne180100Ev, symObjAddr: 0x19F54, symBinAddr: 0x10001AD24, symSize: 0x18 }
  - { offset: 0x2F041, size: 0x8, addend: 0x0, symName: __ZNSt3__16chrono8durationIeNS_5ratioILl1ELl1EEEEC2B8ne180100IxS3_Li0EEERKNS1_IT_T0_EE, symObjAddr: 0x19F6C, symBinAddr: 0x10001AD3C, symSize: 0x44 }
  - { offset: 0x2F09E, size: 0x8, addend: 0x0, symName: __ZNKSt3__16chrono15__duration_castINS0_8durationIxNS_5ratioILl1ELl1EEEEENS2_IeS4_EES4_Lb1ELb1EEclB8ne180100ERKS5_, symObjAddr: 0x19FE0, symBinAddr: 0x10001ADB0, symSize: 0x40 }
  - { offset: 0x2F0DE, size: 0x8, addend: 0x0, symName: __ZNSt3__16chrono8durationIeNS_5ratioILl1ELl1EEEEC1B8ne180100IeLi0EEERKT_, symObjAddr: 0x1A020, symBinAddr: 0x10001ADF0, symSize: 0x34 }
  - { offset: 0x2F126, size: 0x8, addend: 0x0, symName: __ZNSt3__16chrono8durationIeNS_5ratioILl1ELl1EEEEC2B8ne180100IeLi0EEERKT_, symObjAddr: 0x1A054, symBinAddr: 0x10001AE24, symSize: 0x24 }
  - { offset: 0x2F16E, size: 0x8, addend: 0x0, symName: __ZNSt3__16chrono8durationIxNS_5ratioILl1ELl1000000000EEEEC1B8ne180100IxLi0EEERKT_, symObjAddr: 0x1A0C0, symBinAddr: 0x10001AE90, symSize: 0x34 }
  - { offset: 0x2F1B6, size: 0x8, addend: 0x0, symName: __ZNSt3__16chrono8durationIxNS_5ratioILl1ELl1000000000EEEEC2B8ne180100IxLi0EEERKT_, symObjAddr: 0x1A0F4, symBinAddr: 0x10001AEC4, symSize: 0x24 }
  - { offset: 0x2F1FE, size: 0x8, addend: 0x0, symName: __ZNKSt3__16chrono8durationIxNS_5ratioILl1ELl1000000000EEEE5countB8ne180100Ev, symObjAddr: 0x1A118, symBinAddr: 0x10001AEE8, symSize: 0x18 }
  - { offset: 0x2F224, size: 0x8, addend: 0x0, symName: __ZNSt3__16chrono8durationIxNS_5ratioILl1ELl1000000000EEEEC1B8ne180100IxNS2_ILl1ELl1EEELi0EEERKNS1_IT_T0_EE, symObjAddr: 0x1A130, symBinAddr: 0x10001AF00, symSize: 0x34 }
  - { offset: 0x2F275, size: 0x8, addend: 0x0, symName: __ZNSt3__16chrono8durationIxNS_5ratioILl1ELl1000000000EEEEC2B8ne180100IxNS2_ILl1ELl1EEELi0EEERKNS1_IT_T0_EE, symObjAddr: 0x1A164, symBinAddr: 0x10001AF34, symSize: 0x4C }
  - { offset: 0x2F2C6, size: 0x8, addend: 0x0, symName: __ZNSt3__16chrono15duration_valuesIxE3maxB8ne180100Ev, symObjAddr: 0x1A1B0, symBinAddr: 0x10001AF80, symSize: 0x14 }
  - { offset: 0x2F2DA, size: 0x8, addend: 0x0, symName: __ZNSt3__114numeric_limitsIxE3maxB8ne180100Ev, symObjAddr: 0x1A1C4, symBinAddr: 0x10001AF94, symSize: 0x14 }
  - { offset: 0x2F2EE, size: 0x8, addend: 0x0, symName: __ZNSt3__123__libcpp_numeric_limitsIxLb1EE3maxB8ne180100Ev, symObjAddr: 0x1A1D8, symBinAddr: 0x10001AFA8, symSize: 0x8 }
  - { offset: 0x2F302, size: 0x8, addend: 0x0, symName: __ZN5boost4asio2ip14basic_endpointINS1_3udpEEC2ERKNS1_7addressEt, symObjAddr: 0x1A264, symBinAddr: 0x10001B034, symSize: 0x3C }
  - { offset: 0x2F348, size: 0x8, addend: 0x0, symName: __ZN5boost4asio2ip6detail8endpointC1ERKNS1_7addressEt, symObjAddr: 0x1A2A0, symBinAddr: 0x10001B070, symSize: 0x3C }
  - { offset: 0x2F390, size: 0x8, addend: 0x0, symName: __ZN5boost4asio2ip6detail8endpointC2ERKNS1_7addressEt, symObjAddr: 0x1A2DC, symBinAddr: 0x10001B0AC, symSize: 0x198 }
  - { offset: 0x2F410, size: 0x8, addend: 0x0, symName: __ZNK5boost4asio2ip7address5is_v4Ev, symObjAddr: 0x1A474, symBinAddr: 0x10001B244, symSize: 0x24 }
  - { offset: 0x2F436, size: 0x8, addend: 0x0, symName: __ZNK5boost4asio2ip7address5to_v4Ev, symObjAddr: 0x1A4CC, symBinAddr: 0x10001B29C, symSize: 0x8C }
  - { offset: 0x2F47A, size: 0x8, addend: 0x0, symName: __ZNK5boost4asio2ip10address_v47to_uintEv, symObjAddr: 0x1A558, symBinAddr: 0x10001B328, symSize: 0x38 }
  - { offset: 0x2F4A2, size: 0x8, addend: 0x0, symName: __ZNK5boost4asio2ip7address5to_v6Ev, symObjAddr: 0x1A590, symBinAddr: 0x10001B360, symSize: 0x8C }
  - { offset: 0x2F4E6, size: 0x8, addend: 0x0, symName: __ZNK5boost4asio2ip10address_v68to_bytesEv, symObjAddr: 0x1A61C, symBinAddr: 0x10001B3EC, symSize: 0x84 }
  - { offset: 0x2F524, size: 0x8, addend: 0x0, symName: __ZNSt3__15arrayIhLm16EE4dataB8ne180100Ev, symObjAddr: 0x1A6A0, symBinAddr: 0x10001B470, symSize: 0x14 }
  - { offset: 0x2F54A, size: 0x8, addend: 0x0, symName: __ZNK5boost4asio2ip10address_v68scope_idEv, symObjAddr: 0x1A6B4, symBinAddr: 0x10001B484, symSize: 0x18 }
  - { offset: 0x2F570, size: 0x8, addend: 0x0, symName: __ZL12_OSSwapInt32j, symObjAddr: 0x1A6CC, symBinAddr: 0x10001B49C, symSize: 0x20 }
  - { offset: 0x2F59D, size: 0x8, addend: 0x0, symName: __ZN5boost4asio2ip16bad_address_castC1Ev, symObjAddr: 0x1A6EC, symBinAddr: 0x10001B4BC, symSize: 0x2C }
  - { offset: 0x2F5C7, size: 0x8, addend: 0x0, symName: __ZN5boost4asio2ip16bad_address_castD1Ev, symObjAddr: 0x1A784, symBinAddr: 0x10001B554, symSize: 0x2C }
  - { offset: 0x2F5F1, size: 0x8, addend: 0x0, symName: __ZN5boost4asio2ip16bad_address_castC2Ev, symObjAddr: 0x1A7B0, symBinAddr: 0x10001B580, symSize: 0x3C }
  - { offset: 0x2F61B, size: 0x8, addend: 0x0, symName: __ZN5boost4asio2ip16bad_address_castD0Ev, symObjAddr: 0x1A7EC, symBinAddr: 0x10001B5BC, symSize: 0x30 }
  - { offset: 0x2F645, size: 0x8, addend: 0x0, symName: __ZNK5boost4asio2ip16bad_address_cast4whatEv, symObjAddr: 0x1A81C, symBinAddr: 0x10001B5EC, symSize: 0x18 }
  - { offset: 0x2F66B, size: 0x8, addend: 0x0, symName: __ZN5boost10wrapexceptINS_4asio2ip16bad_address_castEEC1ERKS3_, symObjAddr: 0x1A834, symBinAddr: 0x10001B604, symSize: 0x34 }
  - { offset: 0x2F6A3, size: 0x8, addend: 0x0, symName: __ZN5boost10wrapexceptINS_4asio2ip16bad_address_castEED1Ev, symObjAddr: 0x1A868, symBinAddr: 0x10001B638, symSize: 0x2C }
  - { offset: 0x2F6CF, size: 0x8, addend: 0x0, symName: __ZN5boost10wrapexceptINS_4asio2ip16bad_address_castEEC2ERKS3_, symObjAddr: 0x1A894, symBinAddr: 0x10001B664, symSize: 0xCC }
  - { offset: 0x2F707, size: 0x8, addend: 0x0, symName: __ZN5boost4asio2ip16bad_address_castC2ERKS2_, symObjAddr: 0x1A960, symBinAddr: 0x10001B730, symSize: 0x44 }
  - { offset: 0x2F73F, size: 0x8, addend: 0x0, symName: __ZN5boost10wrapexceptINS_4asio2ip16bad_address_castEE9copy_fromEPKv, symObjAddr: 0x1A9A4, symBinAddr: 0x10001B774, symSize: 0x14 }
  - { offset: 0x2F76F, size: 0x8, addend: 0x0, symName: __ZN5boost4asio2ip16bad_address_castD2Ev, symObjAddr: 0x1A9B8, symBinAddr: 0x10001B788, symSize: 0x2C }
  - { offset: 0x2F799, size: 0x8, addend: 0x0, symName: __ZNK5boost10wrapexceptINS_4asio2ip16bad_address_castEE5cloneEv, symObjAddr: 0x1A9E4, symBinAddr: 0x10001B7B4, symSize: 0xE4 }
  - { offset: 0x2F7DB, size: 0x8, addend: 0x0, symName: __ZNK5boost10wrapexceptINS_4asio2ip16bad_address_castEE7rethrowEv, symObjAddr: 0x1AAC8, symBinAddr: 0x10001B898, symSize: 0x6C }
  - { offset: 0x2F801, size: 0x8, addend: 0x0, symName: __ZN5boost10wrapexceptINS_4asio2ip16bad_address_castEED0Ev, symObjAddr: 0x1AB34, symBinAddr: 0x10001B904, symSize: 0x30 }
  - { offset: 0x2F82D, size: 0x8, addend: 0x0, symName: __ZThn8_N5boost10wrapexceptINS_4asio2ip16bad_address_castEED1Ev, symObjAddr: 0x1AB64, symBinAddr: 0x10001B934, symSize: 0x1C }
  - { offset: 0x2F843, size: 0x8, addend: 0x0, symName: __ZThn8_N5boost10wrapexceptINS_4asio2ip16bad_address_castEED0Ev, symObjAddr: 0x1AB80, symBinAddr: 0x10001B950, symSize: 0x18 }
  - { offset: 0x2F859, size: 0x8, addend: 0x0, symName: __ZThn16_N5boost10wrapexceptINS_4asio2ip16bad_address_castEED1Ev, symObjAddr: 0x1AB98, symBinAddr: 0x10001B968, symSize: 0x1C }
  - { offset: 0x2F86F, size: 0x8, addend: 0x0, symName: __ZThn16_N5boost10wrapexceptINS_4asio2ip16bad_address_castEED0Ev, symObjAddr: 0x1ABB4, symBinAddr: 0x10001B984, symSize: 0x18 }
  - { offset: 0x2F885, size: 0x8, addend: 0x0, symName: __ZNSt8bad_castC2B8ne180100ERKS_, symObjAddr: 0x1ABCC, symBinAddr: 0x10001B99C, symSize: 0x44 }
  - { offset: 0x2F8C0, size: 0x8, addend: 0x0, symName: __ZN5boost10wrapexceptINS_4asio2ip16bad_address_castEEC1ERKS4_, symObjAddr: 0x1AC10, symBinAddr: 0x10001B9E0, symSize: 0x34 }
  - { offset: 0x2F901, size: 0x8, addend: 0x0, symName: __ZN5boost10wrapexceptINS_4asio2ip16bad_address_castEE7deleterD1Ev, symObjAddr: 0x1AC44, symBinAddr: 0x10001BA14, symSize: 0x2C }
  - { offset: 0x2F92B, size: 0x8, addend: 0x0, symName: __ZN5boost10wrapexceptINS_4asio2ip16bad_address_castEEC2ERKS4_, symObjAddr: 0x1AC70, symBinAddr: 0x10001BA40, symSize: 0xAC }
  - { offset: 0x2F960, size: 0x8, addend: 0x0, symName: __ZN5boost10wrapexceptINS_4asio2ip16bad_address_castEE7deleterD2Ev, symObjAddr: 0x1AD1C, symBinAddr: 0x10001BAEC, symSize: 0x58 }
  - { offset: 0x2F98A, size: 0x8, addend: 0x0, symName: __ZN5boost10wrapexceptINS_4asio2ip16bad_address_castEED2Ev, symObjAddr: 0x1AD74, symBinAddr: 0x10001BB44, symSize: 0x44 }
  - { offset: 0x2F9B6, size: 0x8, addend: 0x0, symName: __ZNSt3__112basic_stringIcNS_11char_traitsIcEENS_9allocatorIcEEEixB8ne180100Em, symObjAddr: 0x1ADEC, symBinAddr: 0x10001BBBC, symSize: 0x48 }
  - { offset: 0x2F9EB, size: 0x8, addend: 0x0, symName: __ZN5boost4asio14mutable_bufferC1EPvm, symObjAddr: 0x1AE34, symBinAddr: 0x10001BC04, symSize: 0x3C }
  - { offset: 0x2FA31, size: 0x8, addend: 0x0, symName: __ZNSt3__112basic_stringIcNS_11char_traitsIcEENS_9allocatorIcEEE13__fits_in_ssoB8ne180100Em, symObjAddr: 0x1AE70, symBinAddr: 0x10001BC40, symSize: 0x20 }
  - { offset: 0x2FA55, size: 0x8, addend: 0x0, symName: __ZN5boost4asio14mutable_bufferC2EPvm, symObjAddr: 0x1AE90, symBinAddr: 0x10001BC60, symSize: 0x2C }
  - { offset: 0x2FAED, size: 0x8, addend: 0x0, symName: __ZN5boost4asio6detail23buffer_sequence_adapterINS0_12const_bufferENS0_14mutable_bufferEE5firstERKS4_, symObjAddr: 0x1B128, symBinAddr: 0x10001BEF8, symSize: 0x30 }
  - { offset: 0x2FB11, size: 0x8, addend: 0x0, symName: __ZNK5boost4asio12const_buffer4dataEv, symObjAddr: 0x1B158, symBinAddr: 0x10001BF28, symSize: 0x18 }
  - { offset: 0x2FB37, size: 0x8, addend: 0x0, symName: __ZNK5boost4asio12const_buffer4sizeEv, symObjAddr: 0x1B170, symBinAddr: 0x10001BF40, symSize: 0x18 }
  - { offset: 0x2FB5D, size: 0x8, addend: 0x0, symName: __ZN5boost4asio12const_bufferC1ERKNS0_14mutable_bufferE, symObjAddr: 0x1B398, symBinAddr: 0x10001C168, symSize: 0x34 }
  - { offset: 0x2FB95, size: 0x8, addend: 0x0, symName: __ZN5boost4asio12const_bufferC2ERKNS0_14mutable_bufferE, symObjAddr: 0x1B3CC, symBinAddr: 0x10001C19C, symSize: 0x4C }
  - { offset: 0x2FBCD, size: 0x8, addend: 0x0, symName: __ZNK5boost4asio14mutable_buffer4dataEv, symObjAddr: 0x1B418, symBinAddr: 0x10001C1E8, symSize: 0x18 }
  - { offset: 0x2FBF3, size: 0x8, addend: 0x0, symName: __ZNK5boost4asio14mutable_buffer4sizeEv, symObjAddr: 0x1B430, symBinAddr: 0x10001C200, symSize: 0x18 }
  - { offset: 0x2FC19, size: 0x8, addend: 0x0, symName: __ZNSt3__16threadC2IRFvvEJEvEEOT_DpOT0_, symObjAddr: 0x1B448, symBinAddr: 0x10001C218, symSize: 0x148 }
  - { offset: 0x2FC92, size: 0x8, addend: 0x0, symName: __ZNSt3__110unique_ptrINS_15__thread_structENS_14default_deleteIS1_EEEC1B8ne180100ILb1EvEEPS1_, symObjAddr: 0x1B590, symBinAddr: 0x10001C360, symSize: 0x34 }
  - { offset: 0x2FCD6, size: 0x8, addend: 0x0, symName: __ZNSt3__15tupleIJNS_10unique_ptrINS_15__thread_structENS_14default_deleteIS2_EEEEPFvvEEEC1B8ne180100IJS5_RS6_ELi0EEEDpOT_, symObjAddr: 0x1B5C4, symBinAddr: 0x10001C394, symSize: 0x3C }
  - { offset: 0x2FDE3, size: 0x8, addend: 0x0, symName: __ZNSt3__110unique_ptrINS_5tupleIJNS0_INS_15__thread_structENS_14default_deleteIS2_EEEEPFvvEEEENS3_IS8_EEEC1B8ne180100ILb1EvEEPS8_, symObjAddr: 0x1B600, symBinAddr: 0x10001C3D0, symSize: 0x34 }
  - { offset: 0x2FE27, size: 0x8, addend: 0x0, symName: __ZNKSt3__110unique_ptrINS_5tupleIJNS0_INS_15__thread_structENS_14default_deleteIS2_EEEEPFvvEEEENS3_IS8_EEE3getB8ne180100Ev, symObjAddr: 0x1B6FC, symBinAddr: 0x10001C4CC, symSize: 0x28 }
  - { offset: 0x2FE4D, size: 0x8, addend: 0x0, symName: __ZNSt3__110unique_ptrINS_5tupleIJNS0_INS_15__thread_structENS_14default_deleteIS2_EEEEPFvvEEEENS3_IS8_EEE7releaseB8ne180100Ev, symObjAddr: 0x1B724, symBinAddr: 0x10001C4F4, symSize: 0x44 }
  - { offset: 0x2FE82, size: 0x8, addend: 0x0, symName: __ZNSt3__110unique_ptrINS_5tupleIJNS0_INS_15__thread_structENS_14default_deleteIS2_EEEEPFvvEEEENS3_IS8_EEED1B8ne180100Ev, symObjAddr: 0x1B768, symBinAddr: 0x10001C538, symSize: 0x2C }
  - { offset: 0x2FEAC, size: 0x8, addend: 0x0, symName: __ZNSt3__110unique_ptrINS_15__thread_structENS_14default_deleteIS1_EEED1B8ne180100Ev, symObjAddr: 0x1B794, symBinAddr: 0x10001C564, symSize: 0x2C }
  - { offset: 0x2FED6, size: 0x8, addend: 0x0, symName: __ZNSt3__110unique_ptrINS_15__thread_structENS_14default_deleteIS1_EEEC2B8ne180100ILb1EvEEPS1_, symObjAddr: 0x1B7C0, symBinAddr: 0x10001C590, symSize: 0x44 }
  - { offset: 0x2FF20, size: 0x8, addend: 0x0, symName: __ZNSt3__117__compressed_pairIPNS_15__thread_structENS_14default_deleteIS1_EEEC1B8ne180100IRS2_NS_16__value_init_tagEEEOT_OT0_, symObjAddr: 0x1B804, symBinAddr: 0x10001C5D4, symSize: 0x3C }
  - { offset: 0x2FF78, size: 0x8, addend: 0x0, symName: __ZNSt3__117__compressed_pairIPNS_15__thread_structENS_14default_deleteIS1_EEEC2B8ne180100IRS2_NS_16__value_init_tagEEEOT_OT0_, symObjAddr: 0x1B840, symBinAddr: 0x10001C610, symSize: 0x40 }
  - { offset: 0x2FFD0, size: 0x8, addend: 0x0, symName: __ZNSt3__122__compressed_pair_elemIPNS_15__thread_structELi0ELb0EEC2B8ne180100IRS2_vEEOT_, symObjAddr: 0x1B880, symBinAddr: 0x10001C650, symSize: 0x24 }
  - { offset: 0x30013, size: 0x8, addend: 0x0, symName: __ZNSt3__122__compressed_pair_elemINS_14default_deleteINS_15__thread_structEEELi1ELb1EEC2B8ne180100ENS_16__value_init_tagE, symObjAddr: 0x1B8A4, symBinAddr: 0x10001C674, symSize: 0x14 }
  - { offset: 0x30047, size: 0x8, addend: 0x0, symName: __ZNSt3__15tupleIJNS_10unique_ptrINS_15__thread_structENS_14default_deleteIS2_EEEEPFvvEEEC2B8ne180100IJS5_RS6_ELi0EEEDpOT_, symObjAddr: 0x1B8B8, symBinAddr: 0x10001C688, symSize: 0x3C }
  - { offset: 0x300A6, size: 0x8, addend: 0x0, symName: __ZNSt3__112__tuple_implINS_15__tuple_indicesIJLm0ELm1EEEEJNS_10unique_ptrINS_15__thread_structENS_14default_deleteIS4_EEEEPFvvEEEC1B8ne180100IJLm0ELm1EEJS7_S9_EJEJEJS7_RS8_EEENS1_IJXspT_EEEENS_13__tuple_typesIJDpT0_EEENS1_IJXspT1_EEEENSE_IJDpT2_EEEDpOT3_, symObjAddr: 0x1B8F4, symBinAddr: 0x10001C6C4, symSize: 0x3C }
  - { offset: 0x3015A, size: 0x8, addend: 0x0, symName: __ZNSt3__112__tuple_implINS_15__tuple_indicesIJLm0ELm1EEEEJNS_10unique_ptrINS_15__thread_structENS_14default_deleteIS4_EEEEPFvvEEEC2B8ne180100IJLm0ELm1EEJS7_S9_EJEJEJS7_RS8_EEENS1_IJXspT_EEEENS_13__tuple_typesIJDpT0_EEENS1_IJXspT1_EEEENSE_IJDpT2_EEEDpOT3_, symObjAddr: 0x1B930, symBinAddr: 0x10001C700, symSize: 0x48 }
  - { offset: 0x3020E, size: 0x8, addend: 0x0, symName: __ZNSt3__112__tuple_leafILm0ENS_10unique_ptrINS_15__thread_structENS_14default_deleteIS2_EEEELb0EEC2B8ne180100IS5_vEEOT_, symObjAddr: 0x1B978, symBinAddr: 0x10001C748, symSize: 0x34 }
  - { offset: 0x30252, size: 0x8, addend: 0x0, symName: __ZNSt3__112__tuple_leafILm1EPFvvELb0EEC2B8ne180100IRS1_vEEOT_, symObjAddr: 0x1B9AC, symBinAddr: 0x10001C77C, symSize: 0x20 }
  - { offset: 0x30296, size: 0x8, addend: 0x0, symName: __ZNSt3__110unique_ptrINS_15__thread_structENS_14default_deleteIS1_EEEC1B8ne180100EOS4_, symObjAddr: 0x1B9CC, symBinAddr: 0x10001C79C, symSize: 0x34 }
  - { offset: 0x302CE, size: 0x8, addend: 0x0, symName: __ZNSt3__110unique_ptrINS_15__thread_structENS_14default_deleteIS1_EEEC2B8ne180100EOS4_, symObjAddr: 0x1BA00, symBinAddr: 0x10001C7D0, symSize: 0x60 }
  - { offset: 0x30306, size: 0x8, addend: 0x0, symName: __ZNSt3__110unique_ptrINS_15__thread_structENS_14default_deleteIS1_EEE7releaseB8ne180100Ev, symObjAddr: 0x1BA60, symBinAddr: 0x10001C830, symSize: 0x44 }
  - { offset: 0x3033B, size: 0x8, addend: 0x0, symName: __ZNSt3__110unique_ptrINS_15__thread_structENS_14default_deleteIS1_EEE11get_deleterB8ne180100Ev, symObjAddr: 0x1BAA4, symBinAddr: 0x10001C874, symSize: 0x24 }
  - { offset: 0x3036D, size: 0x8, addend: 0x0, symName: __ZNSt3__117__compressed_pairIPNS_15__thread_structENS_14default_deleteIS1_EEEC1B8ne180100IS2_S4_EEOT_OT0_, symObjAddr: 0x1BAC8, symBinAddr: 0x10001C898, symSize: 0x3C }
  - { offset: 0x303C5, size: 0x8, addend: 0x0, symName: __ZNSt3__117__compressed_pairIPNS_15__thread_structENS_14default_deleteIS1_EEE5firstB8ne180100Ev, symObjAddr: 0x1BB04, symBinAddr: 0x10001C8D4, symSize: 0x24 }
  - { offset: 0x303EB, size: 0x8, addend: 0x0, symName: __ZNSt3__122__compressed_pair_elemIPNS_15__thread_structELi0ELb0EE5__getB8ne180100Ev, symObjAddr: 0x1BB28, symBinAddr: 0x10001C8F8, symSize: 0x14 }
  - { offset: 0x30411, size: 0x8, addend: 0x0, symName: __ZNSt3__117__compressed_pairIPNS_15__thread_structENS_14default_deleteIS1_EEE6secondB8ne180100Ev, symObjAddr: 0x1BB3C, symBinAddr: 0x10001C90C, symSize: 0x24 }
  - { offset: 0x30437, size: 0x8, addend: 0x0, symName: __ZNSt3__122__compressed_pair_elemINS_14default_deleteINS_15__thread_structEEELi1ELb1EE5__getB8ne180100Ev, symObjAddr: 0x1BB60, symBinAddr: 0x10001C930, symSize: 0x14 }
  - { offset: 0x3045D, size: 0x8, addend: 0x0, symName: __ZNSt3__117__compressed_pairIPNS_15__thread_structENS_14default_deleteIS1_EEEC2B8ne180100IS2_S4_EEOT_OT0_, symObjAddr: 0x1BB74, symBinAddr: 0x10001C944, symSize: 0x44 }
  - { offset: 0x304B5, size: 0x8, addend: 0x0, symName: __ZNSt3__122__compressed_pair_elemIPNS_15__thread_structELi0ELb0EEC2B8ne180100IS2_vEEOT_, symObjAddr: 0x1BBB8, symBinAddr: 0x10001C988, symSize: 0x24 }
  - { offset: 0x304F8, size: 0x8, addend: 0x0, symName: __ZNSt3__122__compressed_pair_elemINS_14default_deleteINS_15__thread_structEEELi1ELb1EEC2B8ne180100IS3_vEEOT_, symObjAddr: 0x1BBDC, symBinAddr: 0x10001C9AC, symSize: 0x18 }
  - { offset: 0x3053B, size: 0x8, addend: 0x0, symName: __ZNSt3__110unique_ptrINS_5tupleIJNS0_INS_15__thread_structENS_14default_deleteIS2_EEEEPFvvEEEENS3_IS8_EEEC2B8ne180100ILb1EvEEPS8_, symObjAddr: 0x1BBF4, symBinAddr: 0x10001C9C4, symSize: 0x44 }
  - { offset: 0x3057F, size: 0x8, addend: 0x0, symName: __ZNSt3__117__compressed_pairIPNS_5tupleIJNS_10unique_ptrINS_15__thread_structENS_14default_deleteIS3_EEEEPFvvEEEENS4_IS9_EEEC1B8ne180100IRSA_NS_16__value_init_tagEEEOT_OT0_, symObjAddr: 0x1BC38, symBinAddr: 0x10001CA08, symSize: 0x3C }
  - { offset: 0x305D7, size: 0x8, addend: 0x0, symName: __ZNSt3__117__compressed_pairIPNS_5tupleIJNS_10unique_ptrINS_15__thread_structENS_14default_deleteIS3_EEEEPFvvEEEENS4_IS9_EEEC2B8ne180100IRSA_NS_16__value_init_tagEEEOT_OT0_, symObjAddr: 0x1BC74, symBinAddr: 0x10001CA44, symSize: 0x40 }
  - { offset: 0x3062F, size: 0x8, addend: 0x0, symName: __ZNSt3__122__compressed_pair_elemIPNS_5tupleIJNS_10unique_ptrINS_15__thread_structENS_14default_deleteIS3_EEEEPFvvEEEELi0ELb0EEC2B8ne180100IRSA_vEEOT_, symObjAddr: 0x1BCB4, symBinAddr: 0x10001CA84, symSize: 0x24 }
  - { offset: 0x30672, size: 0x8, addend: 0x0, symName: __ZNSt3__122__compressed_pair_elemINS_14default_deleteINS_5tupleIJNS_10unique_ptrINS_15__thread_structENS1_IS4_EEEEPFvvEEEEEELi1ELb1EEC2B8ne180100ENS_16__value_init_tagE, symObjAddr: 0x1BCD8, symBinAddr: 0x10001CAA8, symSize: 0x14 }
  - { offset: 0x306DA, size: 0x8, addend: 0x0, symName: __ZNSt3__121__thread_specific_ptrINS_15__thread_structEE11set_pointerEPS1_, symObjAddr: 0x1BCEC, symBinAddr: 0x10001CABC, symSize: 0x30 }
  - { offset: 0x3070F, size: 0x8, addend: 0x0, symName: __ZNSt3__112__tuple_leafILm0ENS_10unique_ptrINS_15__thread_structENS_14default_deleteIS2_EEEELb0EE3getB8ne180100Ev, symObjAddr: 0x1BD94, symBinAddr: 0x10001CB64, symSize: 0x14 }
  - { offset: 0x30735, size: 0x8, addend: 0x0, symName: __ZNSt3__112__tuple_leafILm1EPFvvELb0EE3getB8ne180100Ev, symObjAddr: 0x1BDF8, symBinAddr: 0x10001CBC8, symSize: 0x14 }
  - { offset: 0x3075B, size: 0x8, addend: 0x0, symName: __ZNKSt3__117__compressed_pairIPNS_5tupleIJNS_10unique_ptrINS_15__thread_structENS_14default_deleteIS3_EEEEPFvvEEEENS4_IS9_EEE5firstB8ne180100Ev, symObjAddr: 0x1BE0C, symBinAddr: 0x10001CBDC, symSize: 0x24 }
  - { offset: 0x30781, size: 0x8, addend: 0x0, symName: __ZNKSt3__122__compressed_pair_elemIPNS_5tupleIJNS_10unique_ptrINS_15__thread_structENS_14default_deleteIS3_EEEEPFvvEEEELi0ELb0EE5__getB8ne180100Ev, symObjAddr: 0x1BE30, symBinAddr: 0x10001CC00, symSize: 0x14 }
  - { offset: 0x307A7, size: 0x8, addend: 0x0, symName: __ZNSt3__117__compressed_pairIPNS_5tupleIJNS_10unique_ptrINS_15__thread_structENS_14default_deleteIS3_EEEEPFvvEEEENS4_IS9_EEE5firstB8ne180100Ev, symObjAddr: 0x1BE44, symBinAddr: 0x10001CC14, symSize: 0x24 }
  - { offset: 0x307CD, size: 0x8, addend: 0x0, symName: __ZNSt3__122__compressed_pair_elemIPNS_5tupleIJNS_10unique_ptrINS_15__thread_structENS_14default_deleteIS3_EEEEPFvvEEEELi0ELb0EE5__getB8ne180100Ev, symObjAddr: 0x1BE68, symBinAddr: 0x10001CC38, symSize: 0x14 }
  - { offset: 0x307F3, size: 0x8, addend: 0x0, symName: __ZNSt3__110unique_ptrINS_5tupleIJNS0_INS_15__thread_structENS_14default_deleteIS2_EEEEPFvvEEEENS3_IS8_EEED2B8ne180100Ev, symObjAddr: 0x1BE7C, symBinAddr: 0x10001CC4C, symSize: 0x30 }
  - { offset: 0x3081D, size: 0x8, addend: 0x0, symName: __ZNSt3__110unique_ptrINS_5tupleIJNS0_INS_15__thread_structENS_14default_deleteIS2_EEEEPFvvEEEENS3_IS8_EEE5resetB8ne180100EPS8_, symObjAddr: 0x1BEAC, symBinAddr: 0x10001CC7C, symSize: 0x78 }
  - { offset: 0x30861, size: 0x8, addend: 0x0, symName: __ZNSt3__117__compressed_pairIPNS_5tupleIJNS_10unique_ptrINS_15__thread_structENS_14default_deleteIS3_EEEEPFvvEEEENS4_IS9_EEE6secondB8ne180100Ev, symObjAddr: 0x1BF24, symBinAddr: 0x10001CCF4, symSize: 0x24 }
  - { offset: 0x30887, size: 0x8, addend: 0x0, symName: __ZNKSt3__114default_deleteINS_5tupleIJNS_10unique_ptrINS_15__thread_structENS0_IS3_EEEEPFvvEEEEEclB8ne180100EPS8_, symObjAddr: 0x1BF48, symBinAddr: 0x10001CD18, symSize: 0x4C }
  - { offset: 0x308BB, size: 0x8, addend: 0x0, symName: __ZNSt3__122__compressed_pair_elemINS_14default_deleteINS_5tupleIJNS_10unique_ptrINS_15__thread_structENS1_IS4_EEEEPFvvEEEEEELi1ELb1EE5__getB8ne180100Ev, symObjAddr: 0x1BF94, symBinAddr: 0x10001CD64, symSize: 0x14 }
  - { offset: 0x308E1, size: 0x8, addend: 0x0, symName: __ZNSt3__15tupleIJNS_10unique_ptrINS_15__thread_structENS_14default_deleteIS2_EEEEPFvvEEED1Ev, symObjAddr: 0x1BFA8, symBinAddr: 0x10001CD78, symSize: 0x2C }
  - { offset: 0x3090E, size: 0x8, addend: 0x0, symName: __ZNSt3__15tupleIJNS_10unique_ptrINS_15__thread_structENS_14default_deleteIS2_EEEEPFvvEEED2Ev, symObjAddr: 0x1BFD4, symBinAddr: 0x10001CDA4, symSize: 0x2C }
  - { offset: 0x3093B, size: 0x8, addend: 0x0, symName: __ZNSt3__112__tuple_implINS_15__tuple_indicesIJLm0ELm1EEEEJNS_10unique_ptrINS_15__thread_structENS_14default_deleteIS4_EEEEPFvvEEED1Ev, symObjAddr: 0x1C000, symBinAddr: 0x10001CDD0, symSize: 0x2C }
  - { offset: 0x30968, size: 0x8, addend: 0x0, symName: __ZNSt3__112__tuple_implINS_15__tuple_indicesIJLm0ELm1EEEEJNS_10unique_ptrINS_15__thread_structENS_14default_deleteIS4_EEEEPFvvEEED2Ev, symObjAddr: 0x1C02C, symBinAddr: 0x10001CDFC, symSize: 0x2C }
  - { offset: 0x30995, size: 0x8, addend: 0x0, symName: __ZNSt3__112__tuple_leafILm0ENS_10unique_ptrINS_15__thread_structENS_14default_deleteIS2_EEEELb0EED2Ev, symObjAddr: 0x1C058, symBinAddr: 0x10001CE28, symSize: 0x2C }
  - { offset: 0x309C2, size: 0x8, addend: 0x0, symName: __ZNSt3__110unique_ptrINS_15__thread_structENS_14default_deleteIS1_EEED2B8ne180100Ev, symObjAddr: 0x1C084, symBinAddr: 0x10001CE54, symSize: 0x30 }
  - { offset: 0x309EC, size: 0x8, addend: 0x0, symName: __ZNSt3__110unique_ptrINS_15__thread_structENS_14default_deleteIS1_EEE5resetB8ne180100EPS1_, symObjAddr: 0x1C0B4, symBinAddr: 0x10001CE84, symSize: 0x78 }
  - { offset: 0x30A30, size: 0x8, addend: 0x0, symName: __ZNKSt3__114default_deleteINS_15__thread_structEEclB8ne180100EPS1_, symObjAddr: 0x1C12C, symBinAddr: 0x10001CEFC, symSize: 0x4C }
  - { offset: 0x30A64, size: 0x8, addend: 0x0, symName: __ZNKSt3__15arrayIcLm1024EE4sizeB8ne180100Ev, symObjAddr: 0x1C178, symBinAddr: 0x10001CF48, symSize: 0x14 }
  - { offset: 0x30A8A, size: 0x8, addend: 0x0, symName: __ZNK5boost4asio2ip14basic_endpointINS1_3udpEE8capacityEv, symObjAddr: 0x1C2A0, symBinAddr: 0x10001D070, symSize: 0x24 }
  - { offset: 0x30AC2, size: 0x8, addend: 0x0, symName: __ZN5boost4asio6detail23buffer_sequence_adapterINS0_14mutable_bufferES3_E5firstERKS3_, symObjAddr: 0x1C444, symBinAddr: 0x10001D214, symSize: 0x24 }
  - { offset: 0x30AE6, size: 0x8, addend: 0x0, symName: __ZN5boost4asio2ip14basic_endpointINS1_3udpEE4dataEv, symObjAddr: 0x1C468, symBinAddr: 0x10001D238, symSize: 0x24 }
  - { offset: 0x30B0C, size: 0x8, addend: 0x0, symName: __ZN5boost4asio2ip14basic_endpointINS1_3udpEE6resizeEm, symObjAddr: 0x1C48C, symBinAddr: 0x10001D25C, symSize: 0x2C }
  - { offset: 0x30B40, size: 0x8, addend: 0x0, symName: __ZNK5boost4asio2ip6detail8endpoint8capacityEv, symObjAddr: 0x1C4B8, symBinAddr: 0x10001D288, symSize: 0x14 }
  - { offset: 0x30B66, size: 0x8, addend: 0x0, symName: __ZN5boost4asio2ip6detail8endpoint4dataEv, symObjAddr: 0x1C75C, symBinAddr: 0x10001D52C, symSize: 0x14 }
  - { offset: 0x30B8C, size: 0x8, addend: 0x0, symName: __ZN5boost4asio2ip6detail8endpoint6resizeEm, symObjAddr: 0x1C770, symBinAddr: 0x10001D540, symSize: 0x74 }
  - { offset: 0x30BDE, size: 0x8, addend: 0x0, symName: __ZNK5boost4asio6detail14io_object_implINS1_23reactive_socket_serviceINS0_2ip3udpEEENS0_15any_io_executorEE11get_serviceEv, symObjAddr: 0x1C7E4, symBinAddr: 0x10001D5B4, symSize: 0x18 }
  - { offset: 0x30C04, size: 0x8, addend: 0x0, symName: __ZNK5boost4asio6detail14io_object_implINS1_23reactive_socket_serviceINS0_2ip3udpEEENS0_15any_io_executorEE18get_implementationEv, symObjAddr: 0x1C8CC, symBinAddr: 0x10001D69C, symSize: 0x18 }
  - { offset: 0x30C2A, size: 0x8, addend: 0x0, symName: __ZN5boost4asio2ip14basic_endpointINS1_3udpEEC1EOS4_, symObjAddr: 0x1C978, symBinAddr: 0x10001D748, symSize: 0x34 }
  - { offset: 0x30C62, size: 0x8, addend: 0x0, symName: __ZN5boost4asio2ip14basic_endpointINS1_3udpEEC2EOS4_, symObjAddr: 0x1CA04, symBinAddr: 0x10001D7D4, symSize: 0x34 }
  - { offset: 0x30C9A, size: 0x8, addend: 0x0, symName: __ZN5boost4asio2ip6detail8endpointC1ERKS3_, symObjAddr: 0x1CA38, symBinAddr: 0x10001D808, symSize: 0x34 }
  - { offset: 0x30CD2, size: 0x8, addend: 0x0, symName: __ZN5boost4asio2ip6detail8endpointC2ERKS3_, symObjAddr: 0x1CA6C, symBinAddr: 0x10001D83C, symSize: 0x2C }
  - { offset: 0x30D0A, size: 0x8, addend: 0x0, symName: __ZNK5boost4asio2ip6detail8endpoint7addressEv, symObjAddr: 0x1CA98, symBinAddr: 0x10001D868, symSize: 0xFC }
  - { offset: 0x30D56, size: 0x8, addend: 0x0, symName: __ZN5boost4asio2ip10address_v4C1Ej, symObjAddr: 0x1CB94, symBinAddr: 0x10001D964, symSize: 0x34 }
  - { offset: 0x30D90, size: 0x8, addend: 0x0, symName: __ZN5boost4asio2ip10address_v4C2Ej, symObjAddr: 0x1CBC8, symBinAddr: 0x10001D998, symSize: 0x3C }
  - { offset: 0x30DCA, size: 0x8, addend: 0x0, symName: __ZNK5boost4asio2ip6detail8endpoint4portEv, symObjAddr: 0x1CC04, symBinAddr: 0x10001D9D4, symSize: 0x78 }
  - { offset: 0x30DF2, size: 0x8, addend: 0x0, symName: __ZNKSt3__117basic_string_viewIcNS_11char_traitsIcEEEixB8ne180100Em, symObjAddr: 0x1CCB4, symBinAddr: 0x10001DA84, symSize: 0x24 }
  - { offset: 0x30E27, size: 0x8, addend: 0x0, symName: __ZN5boost4asio12const_bufferC1EPKvm, symObjAddr: 0x1CCD8, symBinAddr: 0x10001DAA8, symSize: 0x3C }
  - { offset: 0x30E6D, size: 0x8, addend: 0x0, symName: __ZN5boost4asio12const_bufferC2EPKvm, symObjAddr: 0x1CD14, symBinAddr: 0x10001DAE4, symSize: 0x2C }
  - { offset: 0x30EC5, size: 0x8, addend: 0x0, symName: __ZN5boost4asio6detail23buffer_sequence_adapterINS0_12const_bufferES3_E5firstERKS3_, symObjAddr: 0x1CE2C, symBinAddr: 0x10001DBFC, symSize: 0x24 }
...
